(dp1
Vraining
p2
I3
sVboth
p3
I2750
sVyellow
p4
I4
sVfour
p5
I5
sVwoods
p6
I6
sVrailing
p7
I27
sVmarching
p8
I8
sVcanes
p9
I9
sVsnowing
p10
I11
sVsunlit
p11
I12
sVfingernails
p12
I13
sVshaving
p13
I14
sVshielding
p14
I15
sVpropane
p15
I16
sVoceans
p16
I92
sVleisurely
p17
I17
sVbringing
p18
I107
sVmarkers
p19
I6702
sVwooded
p20
I19
sVprize
p21
I20
sVwooden
p22
I21
sVsatchel
p23
I22
sVcrotch
p24
I23
sVornamental
p25
I24
sVtired
p26
I25
sVmiller
p27
I26
sVhanging
p28
I7
sVtires
p29
I28
sVelegant
p30
I29
sVsecond
p31
I30
sVtether
p32
I33
sVblouse
p33
I34
sVadmire
p34
I35
sVcooking
p35
I36
sVsooners
p36
I37
sVfingers
p37
I38
sVcrouch
p38
I39
sVreporter
p39
I40
sVhere
p40
I41
sVherd
p41
I42
sVchina
p42
I43
sVcart
p43
I44
sVdorm
p44
I45
sVstrewn
p45
I278
sVelaborate
p46
I47
sVclimbed
p47
I48
sVelectricity
p48
I49
sVmilitary
p49
I50
sVclimber
p50
I51
sVgolden
p51
I54
sVprojection
p52
I55
sVbrought
p53
I56
sVunit
p54
I58
sVopponents
p55
I59
sVpresents
p56
I3345
sVbrowse
p57
I61
sVsymphony
p58
I62
sVmusic
p59
I63
sVstrike
p60
I64
sVfemales
p61
I65
sVrelay
p62
I66
sVrelax
p63
I67
sVbrings
p64
I68
sVhurt
p65
I69
sVglass
p66
I70
sVtying
p67
I71
sVmidst
p68
I418
sVhold
p69
I73
sVlocked
p70
I74
sVblade
p71
I76
sVlocker
p72
I77
sVmelons
p73
I79
sVwand
p74
I80
sVhousehold
p75
I81
sVorganized
p76
I82
sVleotards
p77
I83
sVcaution
p78
I84
sVreviewing
p79
I85
sVwant
p80
I491
sVhoe
p81
I86
sVtravel
p82
I87
sVdrying
p83
I88
sVfeature
p84
I518
sVmachine
p85
I89
sVhow
p86
I90
sVhot
p87
I91
sVbeauty
p88
I93
sVsippy
p89
I94
sVshores
p90
I95
sVwrong
p91
I96
sVtypes
p92
I97
sVperiod
p93
I5793
sVcolorfully
p94
I98
sVyouths
p95
I99
sVcigarettes
p96
I100
sVkeeps
p97
I101
sVwind
p98
I102
sVwine
p99
I103
sVplayhouse
p100
I105
sVfit
p101
I106
sVscreaming
p102
I18
sVbackpack
p103
I108
sVhidden
p104
I109
sVslicing
p105
I111
sVschools
p106
I738
sVsilver
p107
I112
sVdumps
p108
I114
sVclothed
p109
I2608
sVarrow
p110
I116
sVvolcano
p111
I117
sVtelescope
p112
I118
sVgarment
p113
I119
sVspider
p114
I120
sVbowls
p115
I121
sS'<P>'
p116
I0
sVlaboratory
p117
I122
sVring
p118
I2270
sVrv
p119
I124
sVre
p120
I125
sVsize
p121
I2271
sVfoundation
p122
I127
sVgiven
p123
I5687
sVpumpkins
p124
I130
sVgrapes
p125
I131
sVsheet
p126
I132
sVknit
p127
I133
sVcompetes
p128
I927
sVexposing
p129
I135
sVshelves
p130
I136
sVatm
p131
I137
sVheading
p132
I3358
sVtakeout
p133
I950
sVmusicians
p134
I140
sVspeeds
p135
I142
sVshopper
p136
I143
sVelmo
p137
I144
sVplayfully
p138
I145
sVwash
p139
I146
sVspinning
p140
I147
sVbitten
p141
I148
sVbasketball
p142
I149
sVservice
p143
I150
sVlego
p144
I1010
sVcooling
p145
I5691
sVneeded
p146
I153
sVmaster
p147
I154
sVblossoms
p148
I155
sVlegs
p149
I156
sVlisten
p150
I157
sVlunges
p151
I158
sVjapanese
p152
I3363
sVtask
p153
I4578
sVcrawl
p154
I161
sVtree
p155
I162
sVrusty
p156
I6627
sVidly
p157
I164
sVnations
p158
I165
sVproject
p159
I166
sVfeeling
p160
I167
sVdozes
p161
I168
sVexploring
p162
I5695
sVrunner
p163
I170
sVboston
p164
I171
sVpaddles
p165
I172
sVshrubs
p166
I173
sVdozen
p167
I174
sVescalator
p168
I175
sVperson
p169
I176
sVparamedics
p170
I177
sVbleachers
p171
I178
sVsoaked
p172
I179
sVeagerly
p173
I180
sVmetallic
p174
I181
sVracers
p175
I182
sVcausing
p176
I183
sVdoors
p177
I184
sVseason
p178
I5698
sVgrips
p179
I185
sVpaintbrush
p180
I186
sVcrossbones
p181
I187
sVbuck
p182
I6248
sVobject
p183
I188
sVwells
p184
I189
sVmouth
p185
I190
sVletter
p186
I191
sVvideotaping
p187
I192
sVretaining
p188
I193
sVmacbook
p189
I195
sVdummy
p190
I196
sVsinger
p191
I197
sVcops
p192
I5701
sVprofessor
p193
I199
sVcamp
p194
I200
sVcamo
p195
I201
sVcame
p196
I202
sVsaying
p197
I203
sVboogie
p198
I204
sVreclined
p199
I205
sVpadded
p200
I206
sVparticipate
p201
I207
sVrecliner
p202
I208
sVreclines
p203
I209
sVlessons
p204
I210
sVcapes
p205
I211
sVtouches
p206
I212
sVbusy
p207
I213
sVexcavator
p208
I214
sVquaint
p209
I1327
sVmenu
p210
I215
sVbust
p211
I216
sVmens
p212
I217
sVtheme
p213
I1340
sVrice
p214
I219
sVplate
p215
I220
sVwarmers
p216
I221
sVklein
p217
I222
sVpocket
p218
I223
sVcushion
p219
I224
sVnet
p220
I3373
sVgreens
p221
I1414
sVnicely
p222
I227
sVtights
p223
I228
sVboarder
p224
I229
sVdipping
p225
I230
sVpatch
p226
I231
sVflanked
p227
I232
sVrelease
p228
I233
sVboarded
p229
I234
sVdisaster
p230
I235
sVfair
p231
I236
sVpads
p232
I237
sVhero
p233
I238
sVhammer
p234
I239
sVbest
p235
I240
sVlots
p236
I241
sVhelmeted
p237
I1174
sVrings
p238
I243
sVscore
p239
I244
sVtimber
p240
I245
sVpirate
p241
I246
sVskimpy
p242
I247
sVnature
p243
I248
sVrolled
p244
I249
sVwheelbarrow
p245
I251
sVroller
p246
I252
sVaccident
p247
I253
sVcountry
p248
I254
sVincense
p249
I255
sVbodysuit
p250
I256
sVand
p251
I5708
sVsheepdog
p252
I258
sVblonds
p253
I259
sVcanyon
p254
I260
sVbrindle
p255
I261
sVpillars
p256
I262
sVlighthouse
p257
I263
sVwatercraft
p258
I264
sVsource
p259
I4592
sVunion
p260
I266
sVchiseling
p261
I267
sVstartled
p262
I876
sVstadium
p263
I269
sVfry
p264
I270
sVdots
p265
I271
sVobese
p266
I272
sVlife
p267
I273
sVeastern
p268
I275
sVworker
p269
I276
sVjoust
p270
I1680
sVsubstance
p271
I766
sVtoboggan
p272
I279
sVchild
p273
I280
sVworked
p274
I281
sVspin
p275
I282
sVprofessionally
p276
I283
sVcontemplates
p277
I284
sVskirts
p278
I285
sVcanoeing
p279
I286
sVplayed
p280
I287
sVplayer
p281
I288
sVupscale
p282
I289
sVpiercings
p283
I290
sVviolin
p284
I291
sVmemorial
p285
I1767
sVthings
p286
I293
sVsplit
p287
I1794
sVbabies
p288
I295
sVskateboards
p289
I1185
sVeuropean
p290
I297
sVfairly
p291
I298
sVmarches
p292
I299
sVtops
p293
I300
sVphotographers
p294
I301
sVidea
p295
I6129
sVtune
p296
I302
sVrafting
p297
I3389
sVburgers
p298
I303
sVgoofing
p299
I304
sVplaque
p300
I306
sVcapitol
p301
I307
sVsleeps
p302
I308
sVsleepy
p303
I309
sVbirmingham
p304
I310
sVshading
p305
I1186
sVrushing
p306
I1912
sVlasso
p307
I1917
sVenters
p308
I312
sVbutchering
p309
I1091
sVhad
p310
I313
sVhay
p311
I314
sVeasy
p312
I315
sVduffel
p313
I316
sVeast
p314
I1945
sVhat
p315
I318
sVcasually
p316
I319
sVposed
p317
I320
sVpossible
p318
I321
sVpossibly
p319
I322
sVclustered
p320
I323
sVshadow
p321
I324
sVunique
p322
I1989
sVbushy
p323
I326
sVoccurring
p324
I327
sVseaside
p325
I329
sVpavement
p326
I330
sVsteps
p327
I331
sVright
p328
I332
sVold
p329
I333
sVcreek
p330
I334
sVcrowd
p331
I335
sVpeople
p332
I336
sVcrown
p333
I337
sVbillboard
p334
I338
sVattendees
p335
I339
sVruffled
p336
I340
sVfor
p337
I341
sVbottom
p338
I342
sVcreative
p339
I343
sVfog
p340
I344
sVtreadmill
p341
I345
sVshakes
p342
I346
sVdental
p343
I347
sVtrampoline
p344
I348
sVbinder
p345
I349
sVstarring
p346
I350
sVlosing
p347
I351
sVbowing
p348
I352
sVbenches
p349
I353
sVcitizens
p350
I354
sVo
I355
sVslightly
p351
I357
sVraised
p352
I358
sVfacility
p353
I359
sVson
p354
I360
sVmagazines
p355
I361
sVraises
p356
I362
sVwrap
p357
I363
sVsox
p358
I364
sVshoots
p359
I365
sVfabric
p360
I367
sVwaits
p361
I368
sVsupport
p362
I369
sVgrasping
p363
I370
sVoverhead
p364
I3403
sVlaunching
p365
I941
sVhappy
p366
I374
sVoffer
p367
I2305
sVforming
p368
I376
sVonlooker
p369
I377
sVpaneled
p370
I378
sVinside
p371
I379
sVdevices
p372
I380
sVlays
p373
I381
sVsoldering
p374
I382
sVpanels
p375
I383
sVpassenger
p376
I384
sVlooms
p377
I2366
sVtournament
p378
I385
sVbathrobe
p379
I386
sVpaperwork
p380
I387
sVdealer
p381
I389
sVcrutches
p382
I391
sVdotted
p383
I392
sVfloor
p384
I393
sVglacier
p385
I394
sVcrowns
p386
I395
sVflood
p387
I396
sVprotester
p388
I397
sVroll
p389
I399
sVgreenery
p390
I400
sVrehearsing
p391
I401
sVlollipops
p392
I402
sVpalms
p393
I403
sVmodels
p394
I404
sVsmelling
p395
I405
sVrolling
p396
I406
sVtime
p397
I407
sVpush
p398
I408
sVoverturned
p399
I409
sVgown
p400
I410
sVchilds
p401
I411
sVfurry
p402
I5441
sVchain
p403
I412
sVcrocodile
p404
I413
sVskate
p405
I414
sVskiing
p406
I415
sVtrashcan
p407
I416
sVchair
p408
I417
sVhole
p409
I72
sVballet
p410
I419
sVcrates
p411
I421
sVbicycles
p412
I422
sVbicycler
p413
I423
sVveterans
p414
I425
sVfatigues
p415
I426
sVflatbed
p416
I427
sVstays
p417
I428
sVcooks
p418
I429
sVtricycle
p419
I430
sVkneading
p420
I431
sVollie
p421
I432
sVminnie
p422
I433
sVleave
p423
I434
sVsubway
p424
I435
sVteal
p425
I436
sVteam
p426
I437
sVloads
p427
I438
sVbonfire
p428
I439
sVprevent
p429
I440
sVbulldozer
p430
I441
sVmeadow
p431
I442
sVattic
p432
I1074
sVtrails
p433
I443
sVsteaks
p434
I444
sVchopping
p435
I445
sVshirts
p436
I446
sVparachuting
p437
I447
sVbagging
p438
I448
sVheadset
p439
I449
sVcurrent
p440
I450
sVfalling
p441
I451
sVcrashing
p442
I452
sVbadge
p443
I453
sVclimbs
p444
I454
sVgrandparents
p445
I455
sVplucking
p446
I456
sVshirt)
p447
I457
sValone
p448
I458
sValong
p449
I459
sVpassengers
p450
I461
sVdusty
p451
I462
sVsaws
p452
I463
sVstudies
p453
I466
sVengineer
p454
I5686
sVtasks
p455
I467
sVlove
p456
I468
sVbloody
p457
I469
sVraking
p458
I470
sVfake
p459
I471
sVtraversing
p460
I472
sVforefront
p461
I473
sVsunbathing
p462
I474
sVworking
p463
I475
sVwicker
p464
I476
sVangry
p465
I477
sVtightly
p466
I478
sVfilms
p467
I479
sVscope
p468
I480
sVloving
p469
I481
sVapparent
p470
I482
sVeverywhere
p471
I483
sVscratches
p472
I484
sVriders
p473
I485
sVmascot
p474
I486
sVlogos
p475
I487
sVheineken
p476
I488
sVpretend
p477
I489
sVfollowing
p478
I490
sVmirrors
p479
I492
sVawesome
p480
I494
sVmailboxes
p481
I495
sVparachute
p482
I496
sVhides
p483
I497
sVlistens
p484
I498
sVmonitoring
p485
I499
sVwinter
p486
I500
sVfoul
p487
I5742
sVpoking
p488
I501
sVelephant
p489
I502
sVdivider
p490
I503
sVsnaps
p491
I504
sVlaundry
p492
I505
sVexplorer
p493
I3043
sVspot
p494
I506
sVsuch
p495
I507
sVdove
p496
I508
sVpulley
p497
I509
sVsurfing
p498
I510
sVnatural
p499
I511
sVwheelchair
p500
I3092
sVst
p501
I512
sVdarkened
p502
I513
sVso
p503
I514
sVpulled
p504
I515
sVkayaks
p505
I516
sVflips
p506
I517
sVyears
p507
I3153
sVdecals
p508
I519
sVcourse
p509
I520
sVexperiments
p510
I521
sVbucking
p511
I522
sVsolitary
p512
I523
sVlimbs
p513
I524
sVyawning
p514
I525
sVthumb
p515
I526
sVaccordion
p516
I527
sVbagels
p517
I528
sVtorn
p518
I529
sVattraction
p519
I530
sVcelebrate
p520
I531
sVsuspension
p521
I3203
sVapron
p522
I532
sVcivilian
p523
I533
sVmatches
p524
I534
sVindigenous
p525
I535
sVrecords
p526
I536
sVdrilling
p527
I537
sVarriving
p528
I538
sVtwilight
p529
I539
sVrunners
p530
I540
sVfisherman
p531
I541
sVbowling
p532
I542
sVquarter
p533
I543
sVquartet
p534
I3550
sVturtle
p535
I544
sVsquare
p536
I545
sVretrieve
p537
I546
sVentering
p538
I547
sVbeetle
p539
I548
sVflutes
p540
I549
sVcanvas
p541
I550
sVcontainer
p542
I551
sVrounding
p543
I552
sVseriously
p544
I553
sVinternet
p545
I554
sVsquares
p546
I555
sVquite
p547
I556
sVmime
p548
I557
sVbesides
p549
I558
sVgrandma
p550
I559
sVbumpy
p551
I560
sVdiagram
p552
I561
sVtraining
p553
I562
sVsilhouetted
p554
I563
sVbackside
p555
I564
sVretrieving
p556
I565
sVpunk
p557
I566
sVsilhouettes
p558
I567
sVmassive
p559
I3431
sVemotion
p560
I570
sVbatons
p561
I571
sVsaving
p562
I572
sVclause
p563
I574
sVbluish
p564
I575
sVspokes
p565
I577
sVspanish
p566
I3473
sVchubby
p567
I3475
sVpotted
p568
I579
sVopen
p569
I580
sVcity
p570
I582
sVbite
p571
I583
sVteacher
p572
I6242
sV2
I3507
sVdraft
p573
I585
sVstuffed
p574
I586
sVtyping
p575
I587
sVstreetlight
p576
I3513
sVstructures
p577
I589
sVstarfish
p578
I590
sVfloppy
p579
I591
sVshawl
p580
I592
sVpadding
p581
I593
sVrepresenting
p582
I594
sVboyfriend
p583
I3556
sVdepressed
p584
I595
sVrival
p585
I3576
sVcoats
p586
I596
sVsiding
p587
I597
sVfuture
p588
I598
sVtrekking
p589
I599
sVwandering
p590
I3601
sVscuba
p591
I601
sVaddressing
p592
I602
sVsan
p593
I603
sVturned
p594
I604
sValley
p595
I605
sVsad
p596
I606
sVtastes
p597
I3626
sVrained
p598
I608
sVburied
p599
I609
sVsaw
p600
I610
sVsat
p601
I611
sVbaggage
p602
I1802
sVwarriors
p603
I613
sVdownwards
p604
I614
sVaside
p605
I3667
sVzoo
p606
I615
sVnote
p607
I616
sVtake
p608
I618
sVroadside
p609
I619
sVwanting
p610
I620
sVrelaxed
p611
I621
sVbutterfly
p612
I622
sVhanding
p613
I623
sVmaneuvering
p614
I624
sVopposite
p615
I625
sVbuffet
p616
I626
sVprinted
p617
I627
sVknee
p618
I628
sVpages
p619
I629
sVlawn
p620
I630
sVstilts
p621
I631
sVaverage
p622
I632
sVfarmers
p623
I5769
sVsale
p624
I3741
sVsodas
p625
I635
sVbackdrop
p626
I636
sVbutchered
p627
I3755
sVwalking
p628
I638
sVgrilling
p629
I640
sVbright
p630
I641
sVaggressive
p631
I642
sVslot
p632
I643
sVweapons
p633
I5771
sVslow
p634
I645
sVcloak
p635
I646
sVgoing
p636
I648
sVhockey
p637
I649
sVequipped
p638
I650
sVrobe
p639
I651
sVcarolina
p640
I652
sVlifeguard
p641
I653
sVguarded
p642
I654
sVsuitcases
p643
I3856
sVassistant
p644
I655
sVbalconies
p645
I656
sVwheelie
p646
I657
sVawaiting
p647
I658
sV(one
p648
I659
sVartist
p649
I660
sVworried
p650
I661
sVskyline
p651
I662
sVpriest
p652
I663
sVsnowsuit
p653
I664
sVwhere
p654
I665
sVhorned
p655
I666
sVsurgery
p656
I667
sVdives
p657
I668
sVdiver
p658
I669
sVwielding
p659
I670
sVjumped
p660
I671
sVsites
p661
I3997
sVmops
p662
I672
sVnavigates
p663
I673
sVteens
p664
I4008
sVsurfboards
p665
I675
sVjumper
p666
I676
sVcheckered
p667
I677
sVjobs
p668
I678
sVuk
p669
I1249
sVvertical
p670
I680
sVscreen
p671
I681
sVdome
p672
I682
sVsupermarket
p673
I683
sVconcentrate
p674
I5277
sVawards
p675
I684
sVjets
p676
I685
sVmans
p677
I686
sVmany
p678
I687
sVflipped
p679
I688
sVs
I689
sVconverses
p680
I690
sVmane
p681
I691
sVconcentrates
p682
I692
sVexpression
p683
I693
sVfix
p684
I694
sVtwin
p685
I695
sVboat
p686
I696
sVmath
p687
I697
sVsprays
p688
I3459
sVteddy
p689
I699
sVstretch
p690
I700
sVwest
p691
I701
sVvacation
p692
I702
sVbreath
p693
I703
sVreflective
p694
I704
sVwants
p695
I705
sVlanes
p696
I706
sVformed
p697
I707
sVphotos
p698
I708
sVobserve
p699
I709
sVcalligraphy
p700
I710
sVparasail
p701
I711
sVtribal
p702
I712
sVzippered
p703
I713
sVsqueezes
p704
I714
sVcanoes
p705
I715
sVnewspaper
p706
I716
sVsituation
p707
I717
sVspotlight
p708
I718
sVcanoe
p709
I719
sVbrow
p710
I4905
sVpurse
p711
I720
sVtechnology
p712
I721
sVdragging
p713
I4668
sVcoconuts
p714
I723
sVbarbed
p715
I724
sVwires
p716
I725
sVcheers
p717
I726
sVsnowbank
p718
I727
sVbarber
p719
I728
sVadvertisement
p720
I729
sVmohawk
p721
I730
sVteepee
p722
I731
sVvacant
p723
I732
sVtrains
p724
I733
sVmasks
p725
I6482
sVsummer
p726
I734
sVsprayed
p727
I735
sVbeing
p728
I736
sVrest
p729
I737
sVinstrument
p730
I739
sVskies
p731
I741
sVskier
p732
I742
sVaround
p733
I743
sVdart
p734
I744
sVsumo
p735
I4091
sVtraffic
p736
I746
sVbandage
p737
I747
sVvacuum
p738
I748
sVworld
p739
I749
sVpostal
p740
I750
sVmeat
p741
I3464
sVtarp
p742
I1262
sVclad
p743
I752
sVmichael
p744
I753
sVclay
p745
I754
sVclaw
p746
I755
sVstationary
p747
I756
sVclap
p748
I757
sVauditorium
p749
I758
sVseating
p750
I759
sVfives
p751
I760
sVlobster
p752
I761
sVdiving
p753
I762
sVbongos
p754
I763
sVwristband
p755
I764
sVtote
p756
I765
sVtube
p757
I767
sVtuba
p758
I768
sVexit
p759
I769
sVtubs
p760
I770
sVscientific
p761
I3742
sVpower
p762
I771
sVintimate
p763
I772
sVstone
p764
I774
sVjoyfully
p765
I775
sVpackage
p766
I776
sVfavorite
p767
I777
sVslender
p768
I778
sVmeal
p769
I3468
sVact
p770
I780
sVgesturing
p771
I781
sVstony
p772
I782
sVcurling
p773
I783
sVburning
p774
I784
sVanothers
p775
I785
sVimage
p776
I786
sVlegged
p777
I787
sVprepares
p778
I4675
sVlively
p779
I789
sVmoped
p780
I790
sVwade
p781
I791
sVracquet
p782
I792
sVher
p783
I793
sVhes
p784
I794
sVsides
p785
I1265
sVbrazilian
p786
I796
sVslopes
p787
I797
sVbubble
p788
I798
sVsaris
p789
I799
sVcomplete
p790
I800
sVgliding
p791
I801
sVgurney
p792
I4903
sVblueish
p793
I1123
sVwith
p794
I802
sVcords
p795
I5804
sVbuying
p796
I804
sVhandsome
p797
I805
sVpull
p798
I806
sVrush
p799
I807
sVmonopoly
p800
I808
sVtambourines
p801
I809
sVrags
p802
I810
sVsnowshoes
p803
I811
sVdirty
p804
I812
sVmopping
p805
I813
sVjackhammer
p806
I814
sVtorso
p807
I815
sVtrips
p808
I816
sVrust
p809
I817
sVdarker
p810
I818
sVdetailed
p811
I819
sVgone
p812
I4956
sVcarves
p813
I4960
sVad
p814
I820
sVexhausted
p815
I821
sVaccents
p816
I822
sVam
p817
I823
sVwatches
p818
I824
sVan
p819
I825
sVas
p820
I826
sVat
p821
I827
sVcathedral
p822
I3886
sVwatched
p823
I829
sVwaders
p824
I830
sVadmiring
p825
I4680
sVcream
p826
I833
sVcollie
p827
I834
sVyoga
p828
I5003
sVgraduate
p829
I835
sVtight
p830
I836
sVsummit
p831
I1273
sVsomeones
p832
I838
sVpuppy
p833
I839
sVmotorcyclists
p834
I841
sVpasserby
p835
I842
sVwaving
p836
I843
sVherbs
p837
I844
sVtricks
p838
I845
sVgroom
p839
I846
sVmask
p840
I847
sVdyed
p841
I848
sVhaving
p842
I849
sVmass
p843
I850
sVsawing
p844
I851
sVmotocross
p845
I852
sVceramic
p846
I853
sVdebris
p847
I854
sVattentive
p848
I5811
sVtinsel
p849
I3182
sVhunting
p850
I856
sVtv
p851
I857
sVto
p852
I858
sVtail
p853
I859
sVchewing
p854
I860
sVdressing
p855
I861
sVsmile
p856
I862
sVroadway
p857
I864
sVcase
p858
I5813
sVpuzzled
p859
I866
sVbaton
p860
I867
sVcandid
p861
I868
sVstrand
p862
I871
sVhooking
p863
I872
sVcable
p864
I873
sVaccompanying
p865
I874
sVlaying
p866
I875
sVlarge
p867
I877
sVdinosaur
p868
I878
sVsand
p869
I879
sVadjust
p870
I880
sVunwraps
p871
I881
sVsmall
p872
I882
sVsync
p873
I884
sVpast
p874
I885
sVdisplays
p875
I886
sVpass
p876
I887
sVsituated
p877
I888
sVtrick
p878
I2379
sVclock
p879
I890
sVleis
p880
I891
sVsection
p881
I892
sVburgundy
p882
I893
sVscientists
p883
I894
sVnurse
p884
I895
sVrevealing
p885
I896
sVfull
p886
I897
sVdiapers
p887
I3794
sVhours
p888
I899
sVcivilians
p889
I900
sVmound
p890
I5821
sVexperience
p891
I903
sVsocial
p892
I904
sVaction
p893
I905
sVwelder
p894
I906
sVbrimmed
p895
I907
sVvia
p896
I908
sVfollowed
p897
I5438
sVadidas
p898
I909
sVvie
p899
I910
sVstrolling
p900
I911
sVindoors
p901
I912
sVviz
p902
I913
sVpulls
p903
I914
sVridding
p904
I915
sVpoodle
p905
I916
sVpearl
p906
I917
sVpitching
p907
I918
sV6
I919
sVmore
p908
I920
sVteen
p909
I921
sVconsults
p910
I2383
sVdoor
p911
I923
sVcompany
p912
I925
sVbatsman
p913
I926
sVspeedo
p914
I134
sVriverbank
p915
I929
sVkeeping
p916
I930
sVscience
p917
I931
sVchisel
p918
I932
sVinstalling
p919
I933
sVmall
p920
I934
sVlearn
p921
I935
sVknocked
p922
I936
sVseagull
p923
I937
sVmale
p924
I938
sVbeautiful
p925
I940
sVcampsite
p926
I943
sVautumn
p927
I944
sVschoolgirl
p928
I945
sVgallon
p929
I946
sVdress
p930
I947
sVtapestry
p931
I949
sVhuge
p932
I4316
sVrespective
p933
I951
sVspeedboat
p934
I952
sVglowing
p935
I954
sVfreshly
p936
I955
sVhugs
p937
I956
sVcreature
p938
I957
sVplant
p939
I958
sVcountryside
p940
I959
sVnotre
p941
I960
sVplane
p942
I961
sVwaves
p943
I962
sVbackyard
p944
I963
sVplank
p945
I964
sVorganization
p946
I2576
sVregister
p947
I966
sVhauling
p948
I967
sVvolleyball
p949
I968
sVpatio
p950
I969
sVpans
p951
I970
sVrottweiler
p952
I5738
sVadorned
p953
I971
sVmexican
p954
I972
sVpant
p955
I973
sVlocking
p956
I5832
sVtrade
p957
I975
sVpaper
p958
I976
sVbrim
p959
I5762
sVsigns
p960
I977
sVsmiling
p961
I978
sVits
p962
I979
sVroots
p963
I980
sVlicks
p964
I981
sVsauce
p965
I982
sVally
p966
I983
sVsnowball
p967
I984
sVweeds
p968
I985
sVhotdogs
p969
I986
sVlettuce
p970
I987
sValways
p971
I988
sVswimsuit
p972
I989
sVfound
p973
I990
sVchipping
p974
I991
sVlantern
p975
I992
sVbrunette
p976
I993
sVengland
p977
I994
sVupstairs
p978
I995
sVbouquets
p979
I996
sVoperation
p980
I997
sVreally
p981
I998
sVmissed
p982
I999
sVscoops
p983
I1000
sVresearch
p984
I1001
sVmisses
p985
I1002
sVhighway
p986
I1003
sVjoes
p987
I4707
sVdrifting
p988
I1004
sVcockpit
p989
I1005
sVrises
p990
I1006
sVplowing
p991
I1007
sVdriven
p992
I5842
sVpairs
p993
I1009
sVsimilarly
p994
I151
sVw
I1012
sVbumper
p995
I1013
sVcastle
p996
I1014
sVcorrugated
p997
I1015
sVmajor
p998
I1016
sVnumber
p999
I1017
sVgazes
p1000
I1018
sVironing
p1001
I1019
sVheads
p1002
I1020
sVguest
p1003
I1021
sVjet
p1004
I1022
sVcradles
p1005
I1023
sVcartoon
p1006
I5847
sVfloaties
p1007
I1025
sVwarmly
p1008
I1026
sVinterviewed
p1009
I1027
sVmural
p1010
I4712
sVfocusing
p1011
I6186
sVtheater
p1012
I2403
sVstairs
p1013
I1031
sVobama
p1014
I1032
sVwalmart
p1015
I1033
sVdefends
p1016
I1034
sVdetermined
p1017
I1036
sVmarriage
p1018
I1037
sVfishermen
p1019
I1038
sVtaxis
p1020
I1039
sVmossy
p1021
I1040
sVfights
p1022
I1041
sVpedestrian
p1023
I6161
sVgraffiti
p1024
I1042
sVblond
p1025
I1043
sVsell
p1026
I1044
sVballerina
p1027
I1045
sVodd
p1028
I1046
sVdoberman
p1029
I1047
sValso
p1030
I1048
sVbrace
p1031
I1049
sVplay
p1032
I1050
sVblackboard
p1033
I1051
sVswiftly
p1034
I1052
sVplan
p1035
I1053
sVdarts
p1036
I1054
sVaccepting
p1037
I1055
sVcolliding
p1038
I1056
sVcover
p1039
I1057
sVbarred
p1040
I1058
sVlounge
p1041
I6499
sVartistic
p1042
I1059
sVbarren
p1043
I1060
sVsmocks
p1044
I1061
sVattacking
p1045
I1062
sVgolf
p1046
I1063
sVgold
p1047
I4308
sVdefended
p1048
I1066
sVsession
p1049
I1067
sVdefender
p1050
I1068
sVwraps
p1051
I1069
sVstreetlights
p1052
I1070
sVwrites
p1053
I1071
sVclothesline
p1054
I1072
sVpoodles
p1055
I1073
sVcaptures
p1056
I5855
sVcolumns
p1057
I1075
sVgiants
p1058
I1076
sVboarding
p1059
I3516
sVdandelion
p1060
I1078
sVbeams
p1061
I1079
sVsunny
p1062
I1080
sVpreparing
p1063
I1081
sVclosely
p1064
I1082
sVreporters
p1065
I6494
sVbanner
p1066
I1083
sVsleeve
p1067
I1084
sVpaddling
p1068
I1085
sVcry
p1069
I6521
sVwaling
p1070
I1312
sVriver
p1071
I1086
sVapproaching
p1072
I1087
sVset
p1073
I1089
sVcarrying
p1074
I1090
sVsex
p1075
I1092
sVsee
p1076
I1093
sVsea
p1077
I1094
sVsips
p1078
I1095
sVoutward
p1079
I1096
sVshower
p1080
I1423
sVmovie
p1081
I1098
sVcurrently
p1082
I1099
sVkneeling
p1083
I5860
sVpickup
p1084
I1101
sVcrosswalk
p1085
I1103
sVsundress
p1086
I1104
sVkneel
p1087
I1105
sVeurope
p1088
I1106
sVsparsely
p1089
I1107
sVlast
p1090
I1108
sVbarely
p1091
I1109
sVintercept
p1092
I5928
sVlet
p1093
I1110
sVwhole
p1094
I1111
sVload
p1095
I1112
sVloaf
p1096
I1113
sVelectrician
p1097
I1114
sVdrunk
p1098
I1115
sVforklift
p1099
I1116
sVcommunity
p1100
I1117
sVscottish
p1101
I1118
sVbelt
p1102
I1119
sVroofing
p1103
I1120
sVdevil
p1104
I1121
sVconveyor
p1105
I1122
sVhitting
p1106
I1125
sVextravagant
p1107
I1126
sVresting
p1108
I1127
sVsleeved
p1109
I1128
sVsquirrel
p1110
I1129
sVfire
p1111
I1130
sVwheeler
p1112
I1131
sVracer
p1113
I1133
sVraces
p1114
I1134
sVsleeves
p1115
I6767
sVwheeled
p1116
I1135
sVpresses
p1117
I1136
sVhandling
p1118
I1137
sVcoveralls
p1119
I1138
sVcaged
p1120
I1139
sVstraight
p1121
I1140
sVsesame
p1122
I1141
sVpressed
p1123
I1142
sVleaning
p1124
I1143
sVkissing
p1125
I1144
sVcages
p1126
I1145
sVsecluded
p1127
I1146
sVhoping
p1128
I1147
sVducks
p1129
I1148
sVbeautifully
p1130
I1149
sVchase
p1131
I1150
sVfunny
p1132
I1151
sVfetching
p1133
I1152
sVelevated
p1134
I1153
sVshorter
p1135
I1154
sVknitting
p1136
I1156
sVsnail
p1137
I1157
sVflooded
p1138
I1158
sVteeter
p1139
I1159
sVcigar
p1140
I1160
sVbrides
p1141
I3064
sValert
p1142
I1161
sVviewing
p1143
I1162
sVlevels
p1144
I1163
sVleaps
p1145
I1164
sVhighchairs
p1146
I1165
sVstack
p1147
I1166
sVrecent
p1148
I1167
sVcanned
p1149
I1168
sVpicks
p1150
I1169
sVconcrete
p1151
I1170
sVclasped
p1152
I1171
sVstunt
p1153
I1173
sVforrest
p1154
I242
sVsandal
p1155
I1175
sVadvertisements
p1156
I1176
sVchest
p1157
I1177
sVsignals
p1158
I1178
sVeager
p1159
I1179
sVparents
p1160
I1180
sVlocation
p1161
I1181
sVcrying
p1162
I274
sVsurprised
p1163
I1182
sVharvesting
p1164
I1183
sVclutches
p1165
I4255
sVemergency
p1166
I1184
sVcouple
p1167
I296
sVprivate
p1168
I3681
sVfalcon
p1169
I311
sVprojects
p1170
I1187
sVflannel
p1171
I1188
sVsorting
p1172
I1190
sVmarquee
p1173
I1191
sVchorus
p1174
I1192
sVindividuals
p1175
I1193
sVstylish
p1176
I1194
sVspins
p1177
I1195
sVlimo
p1178
I1196
sVpartying
p1179
I1197
sVspring
p1180
I371
sVbounce
p1181
I1199
sVgreeting
p1182
I2439
sVbouncy
p1183
I1201
sVpalm
p1184
I1202
sVsight
p1185
I1203
sVcurious
p1186
I1204
sVsprint
p1187
I1205
sVpale
p1188
I1206
sVnovelty
p1189
I1207
sVornate
p1190
I1210
sVtemple
p1191
I1211
sVt
I2440
sVbe
p1192
I1213
sVlooming
p1193
I4600
sVsanta
p1194
I1215
sVobscured
p1195
I1216
sVby
p1196
I1217
sVcertificate
p1197
I6737
sVhatchet
p1198
I1218
sVwhiteboard
p1199
I1219
sVwrinkled
p1200
I1220
sVrepair
p1201
I1221
sVgarbage
p1202
I1222
sVinto
p1203
I1223
sVappropriate
p1204
I1224
sVprimarily
p1205
I1225
sVsightseeing
p1206
I1189
sVharnessed
p1207
I2042
sVtasting
p1208
I1619
sVspending
p1209
I1228
sVsock
p1210
I1229
sVcustom
p1211
I1230
sVharnesses
p1212
I1231
sVbridesmaids
p1213
I1232
sVsuit
p1214
I1233
sVspar
p1215
I1234
sV:
I1235
sVathlete
p1216
I1298
sVopens
p1217
I1236
sVexcavating
p1218
I1237
sVhawaiian
p1219
I1238
sVjewish
p1220
I1239
sVposter
p1221
I1240
sVatop
p1222
I1241
sVlink
p1223
I1242
sVcompetition
p1224
I5884
sVline
p1225
I1244
sVrelaxes
p1226
I1245
sVposted
p1227
I1246
sVup
p1228
I1247
sVus
p1229
I1248
sVmature
p1230
I679
sVfaded
p1231
I1250
sVaerial
p1232
I1251
sVlabrador
p1233
I1252
sVyarmulke
p1234
I1253
sVraging
p1235
I1254
sVnighttime
p1236
I3541
sVdiverse
p1237
I1256
sVchat
p1238
I1257
sVsurveying
p1239
I1258
sVfixing
p1240
I1259
sVactors
p1241
I1260
sVtech
p1242
I1261
sVsails
p1243
I751
sVstrums
p1244
I1263
sVcobblestone
p1245
I1264
sVmeals
p1246
I795
sVlane
p1247
I1266
sVland
p1248
I1267
sVfighter
p1249
I1268
sVpedestrians
p1250
I1269
sVage
p1251
I4811
sVholes
p1252
I1271
sVwalked
p1253
I1272
sVbeverage
p1254
I837
sVwalker
p1255
I1274
sVfresh
p1256
I1275
sVhello
p1257
I1276
sVamish
p1258
I3398
sVpartial
p1259
I1277
sVsquats
p1260
I1278
sVsplashing
p1261
I863
sVtotem
p1262
I1279
sVwindowsill
p1263
I1281
sVconcerned
p1264
I1282
sVyoung
p1265
I1283
sVindicating
p1266
I1284
sVgarden
p1267
I1285
sVcontinues
p1268
I1286
sVllama
p1269
I1287
sVmixing
p1270
I1288
sVanimals
p1271
I1355
sVdecorating
p1272
I1290
sVsquirt
p1273
I2445
sVtri
p1274
I1292
sVmagic
p1275
I1293
sVharbor
p1276
I1294
sVtry
p1277
I1295
sVrace
p1278
I1296
sVdisheveled
p1279
I1297
sVrack
p1280
I1011
sVvideo
p1281
I1299
sVenclosed
p1282
I1300
sVassembly
p1283
I2446
sVpajamas
p1284
I1302
sVindex
p1285
I1303
sVtwine
p1286
I1304
sVsweats
p1287
I1305
sVapparatus
p1288
I1306
sVsweaty
p1289
I1307
sVindian
p1290
I1308
sVtwins
p1291
I1309
sVflowing
p1292
I1310
sVbird
p1293
I1311
sVslabs
p1294
I4415
sVscenery
p1295
I1313
sVled
p1296
I1314
sVrollerskate
p1297
I1315
sVleg
p1298
I1316
sVlei
p1299
I1317
sVgathered
p1300
I1318
sVpunch
p1301
I1319
sVdelivering
p1302
I1320
sVpoverty
p1303
I1321
sVeuro
p1304
I1322
sVnapping
p1305
I1270
sVgreat
p1306
I1323
sVengage
p1307
I1599
sVreceive
p1308
I1324
sVinvolved
p1309
I1325
sVcasino
p1310
I1326
sVgrandchild
p1311
I1328
sVbuss
p1312
I464
sVpopcorn
p1313
I1330
sVmakes
p1314
I1331
sVmaker
p1315
I1332
sVthats
p1316
I1333
sVtools
p1317
I1335
sVstanding
p1318
I1336
sVcheered
p1319
I1214
sVzip
p1320
I1339
sVbush
p1321
I218
sVnext
p1322
I1341
sVeleven
p1323
I1342
sVcapri
p1324
I1343
sVmidday
p1325
I1344
sVpencil
p1326
I1345
sVheadscarves
p1327
I1346
sVwades
p1328
I5895
sVopposing
p1329
I1348
sVbullhorn
p1330
I1349
sVbaby
p1331
I1350
sVcentral
p1332
I2456
sVcharity
p1333
I1352
sVcustomer
p1334
I1353
sVballs
p1335
I1354
sVpracticing
p1336
I1289
sVthis
p1337
I1356
sVchallenge
p1338
I1357
sVpour
p1339
I1359
sVthin
p1340
I1360
sVdrill
p1341
I1361
sVrollerskater
p1342
I1362
sVbend
p1343
I1363
sVbent
p1344
I1364
sVreeds
p1345
I1338
sVprocess
p1346
I1365
sVlock
p1347
I1366
sVbillboards
p1348
I1367
sVrode
p1349
I1368
sVpieces
p1350
I1369
sVhigh
p1351
I1370
sVnears
p1352
I1371
sVrollerskates
p1353
I1372
sVslip
p1354
I1373
sVrods
p1355
I1374
sVpaws
p1356
I1375
sVtrumpet
p1357
I1376
sVdocking
p1358
I1377
sVwares
p1359
I1378
sVtightrope
p1360
I1379
sVanimal
p1361
I1380
sVestablishment
p1362
I1381
sVcontraption
p1363
I1382
sVblocks
p1364
I1383
sVhalter
p1365
I1384
sVawait
p1366
I1385
sVtied
p1367
I1386
sVdominos
p1368
I1387
sVpaintball
p1369
I1439
sVnotebook
p1370
I1388
sVdemonstrating
p1371
I1389
sVties
p1372
I1390
sVhawk
p1373
I1455
sVracks
p1374
I1392
sVvaried
p1375
I4776
sVtomato
p1376
I1394
sVcounter
p1377
I1395
sVrobot
p1378
I1396
sVvolunteers
p1379
I1397
sVhouston
p1380
I1399
sVboxing
p1381
I1400
sVmove
p1382
I1401
sVspatula
p1383
I1403
sVmotorcycle
p1384
I1404
sVperfect
p1385
I1405
sVsurgeons
p1386
I1406
sVpullover
p1387
I1550
sV2012
p1388
I6051
sVdesigns
p1389
I1408
sVdock
p1390
I1409
sVsnake
p1391
I1410
sVkiss
p1392
I1411
sVbar
p1393
I3570
sVcage
p1394
I1413
sVscenic
p1395
I1415
sVaccompanies
p1396
I1416
sVsniffing
p1397
I1417
sVaccompanied
p1398
I1418
sVbeneath
p1399
I1419
sVonlookers
p1400
I1420
sVglasses
p1401
I1421
sVprofile
p1402
I1422
sVtents
p1403
I1645
sVdoing
p1404
I1424
sVoperator
p1405
I2464
sVbooks
p1406
I1426
sVjagged
p1407
I1427
sVdisco
p1408
I1428
sVwander
p1409
I1429
sVrigging
p1410
I1430
sVboutique
p1411
I1431
sVmicroscope
p1412
I3574
sVtroop
p1413
I3575
sVshut
p1414
I1434
sVyawns
p1415
I1435
sVsteering
p1416
I1436
sVscary
p1417
I1437
sVcould
p1418
I1438
sVdavid
p1419
I1440
sVchilly
p1420
I1441
sVlength
p1421
I1442
sVpigs
p1422
I1443
sVmotorbikes
p1423
I1445
sVscarf
p1424
I1446
sVblown
p1425
I1447
sVyells
p1426
I1448
sVscene
p1427
I1449
sVjesus
p1428
I1450
sVstraining
p1429
I1451
sVspaghetti
p1430
I1452
sVowner
p1431
I1453
sVblows
p1432
I1454
sVstart
p1433
I2471
sVordering
p1434
I1840
sVsystem
p1435
I1458
sVpercussion
p1436
I1459
sVdecorations
p1437
I1461
sVgraffitied
p1438
I2436
sVenforcement
p1439
I1462
sVstomach
p1440
I1463
sVlot
p1441
I2473
sVshorts
p1442
I1465
sVgrandpa
p1443
I1881
sVmanhole
p1444
I1468
sVsteel
p1445
I1469
sVfloatation
p1446
I1470
sVroulette
p1447
I1471
sVsteep
p1448
I1472
sVsteer
p1449
I1473
sVcollecting
p1450
I1474
sVviewer
p1451
I1475
sVgently
p1452
I1476
sVgentle
p1453
I1477
sVdefending
p1454
I1478
sVponders
p1455
I1479
sVmustachioed
p1456
I1963
sVviewed
p1457
I1481
sVilluminated
p1458
I5918
sVdocuments
p1459
I1972
sVdishes
p1460
I1484
sVstudying
p1461
I1485
sVmechanism
p1462
I3509
sVwaffles
p1463
I1486
sVastride
p1464
I3768
sVkorean
p1465
I1487
sVlatino
p1466
I1488
sVscooping
p1467
I1489
sVsoap
p1468
I1490
sVbrazil
p1469
I3585
sVpetals
p1470
I1493
sVdevice
p1471
I1494
sVcabinet
p1472
I5922
sVmedal
p1473
I1495
sVsocializing
p1474
I1496
sVface
p1475
I1497
sVbins
p1476
I1498
sVmechanical
p1477
I1499
sVpainting
p1478
I1500
sVatmosphere
p1479
I1501
sVhoodies
p1480
I1503
sVshirted
p1481
I2914
sVbring
p1482
I2648
sVbiker
p1483
I1504
sVbikes
p1484
I1505
sVgreenhouse
p1485
I1506
sVbedroom
p1486
I1507
sVrough
p1487
I1508
sVpause
p1488
I1509
sVplanter
p1489
I1510
sVhops
p1490
I1511
sVjar
p1491
I1512
sVshould
p1492
I1513
sVbuttons
p1493
I2142
sVjam
p1494
I2146
sVtape
p1495
I1515
sVriding
p1496
I1516
sVhandle
p1497
I1517
sVshaves
p1498
I3593
sVsmash
p1499
I1519
sVhoses
p1500
I1520
sVstuff
p1501
I1521
sVohio
p1502
I1522
sVhandstand
p1503
I1523
sVdirects
p1504
I1524
sVframe
p1505
I1525
sVslanted
p1506
I1526
sVskateboarding
p1507
I1527
sVpacked
p1508
I1528
sVwire
p1509
I1529
sVsuperhero
p1510
I1530
sVinteracting
p1511
I1531
sVpistol
p1512
I1532
sVends
p1513
I1533
sVastroturf
p1514
I1534
sVcourtyard
p1515
I1535
sVstrides
p1516
I4765
sVstaring
p1517
I1536
sVdrum
p1518
I1537
sVhandstands
p1519
I1538
sVethnicities
p1520
I1539
sVramp
p1521
I1541
sVdoorway
p1522
I1542
sVstreams
p1523
I2395
sVcinder
p1524
I1544
sVco
p1525
I1545
sVpounces
p1526
I1546
sVsnowfall
p1527
I1547
sVjavelin
p1528
I1548
sVwhispering
p1529
I1549
sVlabor
p1530
I870
sVmailman
p1531
I1551
sVpowered
p1532
I1552
sVgondola
p1533
I1553
sVwindsurfs
p1534
I1554
sVchalkboard
p1535
I1555
sVfeather
p1536
I1557
sVcommuter
p1537
I1558
sVroasting
p1538
I2514
sVtoasting
p1539
I1560
sVspain
p1540
I1561
sVcoals
p1541
I1562
sVrunway
p1542
I1563
sVgrinning
p1543
I1564
sVbathtub
p1544
I1566
sVlush
p1545
I1567
sVsite
p1546
I1568
sVspectating
p1547
I1569
sVvw
p1548
I1570
sVsits
p1549
I1571
sVheadfirst
p1550
I4569
sVskateboarders
p1551
I2490
sVdigging
p1552
I1574
sVglaring
p1553
I1575
sVball
p1554
I1576
sVdusk
p1555
I1577
sVbale
p1556
I1578
sVdrink
p1557
I2637
sVupon
p1558
I1580
sVpaving
p1559
I2655
sVdust
p1560
I1583
sVoveralls
p1561
I2662
sVbroccoli
p1562
I1585
sVmosaic
p1563
I1586
sVoff
p1564
I1587
sVshotgun
p1565
I1588
sVovercast
p1566
I1589
sVaudio
p1567
I1590
sVdrawing
p1568
I1591
sVbananas
p1569
I1592
sVless
p1570
I1593
sVfootbridge
p1571
I1594
sVpaul
p1572
I1595
sVglue
p1573
I1596
sVweb
p1574
I1597
sVresidential
p1575
I1598
sVcombing
p1576
I2769
sVcrack
p1577
I2771
sVvillagers
p1578
I1601
sVgovernment
p1579
I1602
sVchecking
p1580
I1603
sVcobble
p1581
I1604
sVcruz
p1582
I2806
sVsolider
p1583
I1606
sVfive
p1584
I1607
sVdesk
p1585
I2814
sVpier
p1586
I1608
sVpies
p1587
I1609
sVcrisp
p1588
I1610
sVonion
p1589
I2829
sVsleds
p1590
I2831
sVunicycles
p1591
I1612
sVgarage
p1592
I1613
sVparagliding
p1593
I1614
sVportly
p1594
I1615
sVdaylight
p1595
I1616
sVgymnastics
p1596
I1617
sVchoosing
p1597
I1618
sVtransport
p1598
I1620
sVavoid
p1599
I1621
sVcontently
p1600
I1622
sVsketching
p1601
I1623
sVdoes
p1602
I1624
sVblurry
p1603
I1625
sVstairway
p1604
I1626
sVblowing
p1605
I1627
sVcontestants
p1606
I1628
sVselecting
p1607
I4504
sVpressure
p1608
I1630
sVzips
p1609
I1631
sVr
I5705
sVstage
p1610
I2968
sVsister
p1611
I1633
sVdrumming
p1612
I1634
sVangeles
p1613
I1636
sVseeds
p1614
I1637
sVconcession
p1615
I1638
sVswimming
p1616
I1639
sVletters
p1617
I1640
sVmets
p1618
I1641
sVsnuggling
p1619
I1642
sVswimmers
p1620
I1643
sVhousing
p1621
I1644
sVspots
p1622
I1646
sVbump
p1623
I1647
sVroofed
p1624
I1648
sVbagged
p1625
I3094
sVsponges
p1626
I1650
sVdelivery
p1627
I1651
sVconstruction
p1628
I3126
sVgrate
p1629
I1653
sVdelivers
p1630
I1654
sVleashed
p1631
I1655
sVtossed
p1632
I3152
sVplaces
p1633
I1656
sVchained
p1634
I1657
sVofficial
p1635
I1658
sVsmooth
p1636
I3165
sVvolvo
p1637
I1659
sVexcitement
p1638
I1660
sVharvested
p1639
I3172
sVtosses
p1640
I1662
sVleashes
p1641
I1663
sVmonument
p1642
I1664
sVproblem
p1643
I1665
sVbearing
p1644
I1666
sVirish
p1645
I1667
sVnurses
p1646
I1668
sVrubble
p1647
I1669
sVsibling
p1648
I1670
sVink
p1649
I1671
sVplanting
p1650
I1672
sVvariety
p1651
I1673
sVgoalkeeper
p1652
I1674
sVdetails
p1653
I1675
sVponytail
p1654
I1676
sVfrancisco
p1655
I5004
sVfootprints
p1656
I3273
sVveil
p1657
I1678
sVdolphins
p1658
I5595
sVsearches
p1659
I1679
sVbatting
p1660
I5716
sVlift
p1661
I1682
sVcompete
p1662
I1683
sVrural
p1663
I1684
sVtrims
p1664
I1685
sVbuoy
p1665
I1686
sVfrolics
p1666
I1687
sVmansion
p1667
I1688
sVwaring
p1668
I1689
sVbike
p1669
I1690
sVmessenger
p1670
I1691
sVblanket
p1671
I1693
sVcloseup
p1672
I1694
sVwagons
p1673
I1695
sVtagging
p1674
I6185
sVtickets
p1675
I1697
sVwhisk
p1676
I1698
sVcornfield
p1677
I5965
sVsuite
p1678
I1701
sVwhist
p1679
I1702
sVchew
p1680
I1703
sVphones
p1681
I1704
sVhorn
p1682
I1705
sVchef
p1683
I1706
sVpanda
p1684
I1707
sVmachines
p1685
I1708
sVnear
p1686
I3627
sVabove
p1687
I1711
sVconsisting
p1688
I1712
sVsimultaneously
p1689
I1713
sVsinks
p1690
I1714
sVfestive
p1691
I1715
sVwrapping
p1692
I1716
sVdustpan
p1693
I1717
sVprotection
p1694
I1718
sVpursuit
p1695
I1719
sVcelebration
p1696
I1720
sVhairdo
p1697
I1721
sVwatermelons
p1698
I1722
sVdaughter
p1699
I1723
sVitems
p1700
I1724
sVsmoky
p1701
I5135
sVsmoke
p1702
I1726
sVbrowsing
p1703
I1727
sVwalkie
p1704
I1728
sVwhitewater
p1705
I1729
sVhighly
p1706
I1730
sVbra
p1707
I1731
sVplow
p1708
I1732
sVpalestinian
p1709
I1733
sValligator
p1710
I1734
sVsweater
p1711
I1735
sVindians
p1712
I3710
sVbundles
p1713
I1736
sVknoll
p1714
I1737
sVbundled
p1715
I1738
sVseparated
p1716
I1739
sVvacuums
p1717
I1740
sVaward
p1718
I1741
sVpierced
p1719
I1742
sVturbans
p1720
I1743
sVblocking
p1721
I1744
sVword
p1722
I1745
sVwore
p1723
I1746
sVpresentation
p1724
I5975
sVwork
p1725
I1748
sVworn
p1726
I1749
sVera
p1727
I1750
sVmechanic
p1728
I1751
sVblooming
p1729
I1752
sVelbow
p1730
I1753
sVelegantly
p1731
I1754
sVcans
p1732
I3639
sVflung
p1733
I1756
sVindia
p1734
I1757
sVacrobatic
p1735
I1758
sVsong
p1736
I5980
sVnuts
p1737
I1760
sVinterview
p1738
I4941
sVbeach
p1739
I1763
sVpizza
p1740
I1764
sVladder
p1741
I1765
sVafter
p1742
I1766
sVdamaged
p1743
I292
sVlab
p1744
I1768
sVbared
p1745
I1769
sVlay
p1746
I1770
sVlaw
p1747
I1772
sVarch
p1748
I460
sVheaddress
p1749
I1774
sVlas
p1750
I1775
sVgreet
p1751
I1776
sVgreek
p1752
I1777
sVsons
p1753
I5984
sVgreen
p1754
I1778
sVwaitress
p1755
I4853
sVambulance
p1756
I1780
sVorder
p1757
I1781
sVsalon
p1758
I1782
sVpopsicle
p1759
I1783
sVoffice
p1760
I1784
sVdefenders
p1761
I1785
sVjapan
p1762
I1786
sVnets
p1763
I4022
sVbubbles
p1764
I5986
sVoncoming
p1765
I1788
sVsomewhere
p1766
I1789
sVrecreational
p1767
I1790
sVproduction
p1768
I1791
sVcarton
p1769
I1793
sVversus
p1770
I1795
sVthen
p1771
I1796
sVthem
p1772
I1797
sVsafe
p1773
I1798
sVcollide
p1774
I1799
sVbreak
p1775
I1800
sVband
p1776
I1801
sVreaches
p1777
I1803
sVthey
p1778
I1804
sVbank
p1779
I1805
sVbread
p1780
I1806
sVrocky
p1781
I1807
sVoxygen
p1782
I6056
sVascends
p1783
I1808
sVroutines
p1784
I1809
sVbackgrounds
p1785
I1810
sVrocks
p1786
I1812
sVdingy
p1787
I1813
sVembankment
p1788
I1814
sVhurdle
p1789
I1815
sVfeeds
p1790
I1816
sVcrocs
p1791
I1817
sVlifted
p1792
I1818
sVkneels
p1793
I1819
sVlogs
p1794
I1820
sVdumping
p1795
I1821
sVbraiding
p1796
I1822
sVsled
p1797
I1823
sVquiznos
p1798
I1824
sVhosted
p1799
I1825
sVlogo
p1800
I1826
sVflock
p1801
I1827
sVmotorized
p1802
I1828
sVsprints
p1803
I1829
sVburlap
p1804
I1830
sVcameras
p1805
I1831
sVhooked
p1806
I1832
sVforth
p1807
I1833
sVsliding
p1808
I1834
sVbarrier
p1809
I1835
sVstencil
p1810
I465
sVamazement
p1811
I4285
sVlollipop
p1812
I1836
sVshrubbery
p1813
I1837
sVbaseman
p1814
I1838
sVcreated
p1815
I4313
sVcreates
p1816
I1839
sVfestival
p1817
I1457
sVlicked
p1818
I1841
sVwaterfall
p1819
I3658
sVchopped
p1820
I1842
sVchased
p1821
I1843
sVanother
p1822
I1844
sVthick
p1823
I1845
sVelectronic
p1824
I1846
sVelevator
p1825
I1848
sVjohn
p1826
I1849
sVdogs
p1827
I1850
sVtotter
p1828
I1851
sVemblem
p1829
I1853
sVhappily
p1830
I1854
sVcereal
p1831
I1855
sVtoronto
p1832
I1856
sVtarget
p1833
I1858
sVhike
p1834
I1859
sVtackles
p1835
I4508
sViron
p1836
I1861
sVtackled
p1837
I1862
sVtipping
p1838
I1863
sVnavigate
p1839
I1864
sVmanner
p1840
I1865
sVstalls
p1841
I1866
sVcontents
p1842
I1867
sVnecktie
p1843
I1868
sVladen
p1844
I1869
sVlatter
p1845
I1870
sVmaterials
p1846
I3663
sVforces
p1847
I1873
sVswims
p1848
I1874
sVcircles
p1849
I1875
sVextending
p1850
I1876
sVinvolving
p1851
I1877
sVcircled
p1852
I1878
sVexercises
p1853
I4643
sVsun
p1854
I6003
sVrickshaw
p1855
I1467
sVbriskly
p1856
I2354
sVfitted
p1857
I1882
sVchandelier
p1858
I1883
sVenjoyed
p1859
I1884
sVtoast
p1860
I1885
sVgeyser
p1861
I1886
sVgoalie
p1862
I1887
sVsews
p1863
I1888
sVdo
p1864
I1889
sVdj
p1865
I1890
sVrailings
p1866
I1891
sVfrowning
p1867
I1892
sVdr
p1868
I1893
sVds
p1869
I1894
sVruns
p1870
I1895
sVcovering
p1871
I1896
sVgears
p1872
I1897
sVsteak
p1873
I1898
sVsteal
p1874
I1899
sVsteam
p1875
I1900
sVobserves
p1876
I1902
sVlemonade
p1877
I1903
sVobserved
p1878
I1904
sVcattle
p1879
I1905
sVtechniques
p1880
I1906
sVpastel
p1881
I1907
sVdraws
p1882
I1908
sVaway
p1883
I1909
sVgentleman
p1884
I1910
sVswimwear
p1885
I1911
sVovergrown
p1886
I1913
sVprops
p1887
I1914
sVdrawn
p1888
I1915
sVcrosscountry
p1889
I1916
sVshields
p1890
I1918
sVwe
p1891
I1919
sVhandful
p1892
I1920
sVconvertible
p1893
I1921
sVpackages
p1894
I1922
sVkitchen
p1895
I1923
sVbras
p1896
I1924
sVcop
p1897
I1925
sVcow
p1898
I1926
sVmariachi
p1899
I1927
sVcob
p1900
I1928
sVreceives
p1901
I1929
sVpeacefully
p1902
I1930
sVspear
p1903
I1931
sVroyal
p1904
I1932
sVtons
p1905
I1933
sVoblivious
p1906
I1934
sVheadlights
p1907
I129
sVflexible
p1908
I1936
sVdozens
p1909
I1937
sVduties
p1910
I1938
sVfamilies
p1911
I1939
sVrelaxing
p1912
I1940
sVattacked
p1913
I1941
sVdroplets
p1914
I1942
sVhoist
p1915
I1943
sVapplied
p1916
I1944
sVhas
p1917
I317
sVsculpt
p1918
I1852
sVlaunches
p1919
I1946
sVair
p1920
I1947
sVaim
p1921
I1948
sVentertains
p1922
I5155
sVaid
p1923
I1951
sVvoice
p1924
I1952
sVlaunched
p1925
I1953
sVcylinder
p1926
I1954
sVsticker
p1927
I1955
sVskipping
p1928
I1956
sVtissue
p1929
I1957
sVcone
p1930
I1958
sVhebrew
p1931
I1959
sVdescent
p1932
I1960
sVperform
p1933
I1961
sVapparently
p1934
I1962
sVclearly
p1935
I1480
sVgrapple
p1936
I5231
sVdescend
p1937
I1964
sVplates
p1938
I1965
sVbunny
p1939
I1966
sVwheel
p1940
I1967
sVhorseshoes
p1941
I1968
sVhang
p1942
I1969
sVevil
p1943
I1970
sVhand
p1944
I1971
sVmountainous
p1945
I1483
sVbandannas
p1946
I1974
sVkept
p1947
I1975
sVhopping
p1948
I1976
sVragged
p1949
I1977
sVhispanic
p1950
I1978
sVcontact
p1951
I1979
sVthe
p1952
I1980
sVmusical
p1953
I1981
sVtrainer
p1954
I1982
sVmingle
p1955
I953
sVathletic
p1956
I1983
sVphoto
p1957
I1984
sVgoggles
p1958
I1985
sVupturned
p1959
I1987
sVadding
p1960
I1988
sVposes
p1961
I325
sVhills
p1962
I1990
sVflooring
p1963
I1991
sVyamaha
p1964
I1992
sVphotographer
p1965
I1993
sVhilly
p1966
I1994
sVspread
p1967
I1995
sVboard
p1968
I1997
sVphotographed
p1969
I1998
sVcaps
p1970
I1999
sVarab
p1971
I2000
sVboxes
p1972
I2001
sVboxer
p1973
I2002
sVcape
p1974
I2003
sVcooler
p1975
I2004
sVsparse
p1976
I2005
sVnight
p1977
I2006
sVsecurity
p1978
I2007
sVantique
p1979
I2008
sVsends
p1980
I2009
sVborn
p1981
I2010
sVpurple
p1982
I2011
sVfestivities
p1983
I2012
sVviolinist
p1984
I2013
sVfilming
p1985
I2014
sVasking
p1986
I2015
sVbeating
p1987
I2016
sVadorable
p1988
I2017
sVpeek
p1989
I2018
sVpose
p1990
I2019
sVgraduates
p1991
I2020
sVarchitectural
p1992
I2021
sVscarves
p1993
I2022
sVpost
p1994
I2023
sVtrophy
p1995
I2024
sVdiner
p1996
I2025
sVcoral
p1997
I2026
sVaccepts
p1998
I2027
sVhorizon
p1999
I2028
sVdonuts
p2000
I6024
sVgingerbread
p2001
I2029
sVoctopus
p2002
I2030
sVpineapples
p2003
I2031
sVsparing
p2004
I3142
sVbound
p2005
I2033
sVbalances
p2006
I2034
sVhandbag
p2007
I4891
sVbalanced
p2008
I2036
sVstrangely
p2009
I2037
sVpiggyback
p2010
I6026
sVamidst
p2011
I6338
sVfuchsia
p2012
I2040
sVfight
p2013
I2041
sVway
p2014
I2043
sVwax
p2015
I2044
sVwas
p2016
I2045
sVwar
p2017
I2046
sVsnowy
p2018
I2047
sVconverse
p2019
I2048
sVelderly
p2020
I3691
sVsailboats
p2021
I2050
sVresponding
p2022
I2051
sVentertainers
p2023
I2052
sVcrystal
p2024
I2053
sVcoverings
p2025
I2054
sVunusually
p2026
I2055
sVumpire
p2027
I2058
sVcleats
p2028
I2059
sVtrombone
p2029
I2060
sVprayer
p2030
I2061
sVwintry
p2031
I2062
sVphysical
p2032
I2063
sVdimly
p2033
I2064
sVhandmade
p2034
I2065
sVtopped
p2035
I2066
sVinterested
p2036
I2067
sVholding
p2037
I2068
sVtest
p2038
I2069
sVfrolic
p2039
I2070
sVscored
p2040
I2071
sVbrothers
p2041
I2072
sVfairground
p2042
I5894
sVwelcome
p2043
I2073
sVnotepad
p2044
I2074
sVscores
p2045
I2075
sVtroupe
p2046
I2076
sVtogether
p2047
I2077
sVcollared
p2048
I2078
sVreception
p2049
I2079
sVigloo
p2050
I2080
sVdance
p2051
I2081
sVsilverware
p2052
I2082
sVhorseback
p2053
I2083
sVbattle
p2054
I2084
sVlayers
p2055
I2085
sVhurry
p2056
I2086
sVzone
p2057
I2087
sVmallet
p2058
I2088
sVjogger
p2059
I2089
sVflash
p2060
I2090
sVbrown
p2061
I2091
sVprotective
p2062
I2092
sVseemingly
p2063
I2093
sVautomobiles
p2064
I2094
sVvegas
p2065
I2095
sVsunbathe
p2066
I2096
sVkitten
p2067
I2097
sVkitchenaid
p2068
I2098
sVtrouble
p2069
I2099
sVresponders
p2070
I2100
sVaggressively
p2071
I2101
sVpresented
p2072
I2102
sVturns
p2073
I2103
sVgun
p2074
I2104
sVgum
p2075
I2105
sVp
I2106
sVguitars
p2076
I2107
sVguy
p2077
I2108
sVwoven
p2078
I2109
sVupper
p2079
I2110
sVbrave
p2080
I2111
sVprairie
p2081
I2112
sVcargo
p2082
I2113
sVappear
p2083
I2114
sVbarbie
p2084
I2115
sVscaffold
p2085
I2116
sVshares
p2086
I2117
sVuniform
p2087
I2118
sVshared
p2088
I2119
sVsupporting
p2089
I2120
sVexplosion
p2090
I6209
sVmuslim
p2091
I2121
sVteaches
p2092
I576
sVappears
p2093
I2123
sVchange
p2094
I2124
sVpedals
p2095
I2125
sVincoming
p2096
I2126
sVflames
p2097
I2127
sVlakers
p2098
I2128
sVexiting
p2099
I2129
sVbangs
p2100
I2130
sVpatriotic
p2101
I2131
sVpillow
p2102
I2132
sVdefensive
p2103
I2133
sVhiking
p2104
I2134
sVextra
p2105
I2135
sVmarked
p2106
I2136
sVuphill
p2107
I2137
sVsnowboard
p2108
I2138
sVseashore
p2109
I2139
sVmarker
p2110
I2140
sVmarket
p2111
I2141
sVterminal
p2112
I1514
sVlive
p2113
I2145
sVfiremans
p2114
I2147
sVangels
p2115
I2148
sVmatador
p2116
I2149
sVintently
p2117
I2150
sVentrance
p2118
I2151
sVcountertop
p2119
I2152
sVclub
p2120
I2153
sVenvelope
p2121
I2154
sVslinky
p2122
I2155
sVoutstreached
p2123
I2158
sVbowler
p2124
I2159
sVskaters
p2125
I6403
sVdecked
p2126
I2160
sVcar
p2127
I2161
sVcap
p2128
I2162
sVcat
p2129
I2163
sVdecker
p2130
I2164
sVlabeled
p2131
I2165
sVgathers
p2132
I2166
sVcan
p2133
I2167
sVcab
p2134
I2168
sVheart
p2135
I2169
sVgrassy
p2136
I2170
sVpauses
p2137
I2171
sVchip
p2138
I2172
sVwaterski
p2139
I2173
sVtopic
p2140
I2906
sVskydiving
p2141
I2174
sVposing
p2142
I2175
sVspa
p2143
I2176
sVclothing
p2144
I2177
sVairplane
p2145
I6048
sVwetsuits
p2146
I2179
sVdiscussion
p2147
I2180
sVspreads
p2148
I2181
sVtrophies
p2149
I398
sVwrite
p2150
I2183
sVproduct
p2151
I2185
sVstaircase
p2152
I2186
sVdive
p2153
I2187
sVjousting
p2154
I2189
sVproduce
p2155
I2190
sVlifting
p2156
I2191
sVbackpacking
p2157
I2192
sVnoses
p2158
I2193
sVgrandson
p2159
I2194
sVcandles
p2160
I2195
sVtrumpets
p2161
I2196
sVcorona
p2162
I2197
sVclover
p2163
I5128
sVtypical
p2164
I2198
sVtagged
p2165
I2199
sVserving
p2166
I2200
sVhaircut
p2167
I2201
sVdisplayed
p2168
I2202
sVplayful
p2169
I2203
sVcongregating
p2170
I2204
sVcold
p2171
I2205
sVstill
p2172
I2206
sVbirds
p2173
I2207
sVcola
p2174
I2208
sVtending
p2175
I2209
sVrooftop
p2176
I2210
sVcurly
p2177
I2211
sVholing
p2178
I2212
sVcurls
p2179
I2213
sVshaping
p2180
I2214
sVforms
p2181
I2215
sVwindow
p2182
I2216
sVtiara
p2183
I2217
sVnon
p2184
I2218
sVrake
p2185
I2219
sVscaling
p2186
I2220
sVtails
p2187
I2221
sVslacks
p2188
I2222
sVhalf
p2189
I2223
sVnot
p2190
I2224
sVnow
p2191
I2225
sVhall
p2192
I2226
sVgalloping
p2193
I2227
sVcommuters
p2194
I3713
sVstreaks
p2195
I2229
sVdrop
p2196
I2230
sVentirely
p2197
I2231
sVcliffs
p2198
I2232
sVed
p2199
I2233
sVstooping
p2200
I2234
sVdirecting
p2201
I2235
sVgoose
p2202
I2236
sVfires
p2203
I2237
sVeyebrow
p2204
I2238
sVyear
p2205
I2239
sVhappen
p2206
I2240
sVteams
p2207
I4929
sVmonitors
p2208
I2241
sVamusement
p2209
I2242
sVwheelers
p2210
I2243
sVirons
p2211
I2244
sVshown
p2212
I2245
sVopened
p2213
I2246
sVspace
p2214
I2247
sVlooking
p2215
I2248
sVnavigating
p2216
I2249
sVreceiving
p2217
I2250
sVshows
p2218
I2251
sVcars
p2219
I2252
sVsaxophones
p2220
I2253
sVgrimacing
p2221
I2254
sVmarina
p2222
I2255
sVmarine
p2223
I2257
sVcard
p2224
I2258
sVcare
p2225
I2259
sVfixed
p2226
I4932
sVbritish
p2227
I2260
sVtangled
p2228
I2261
sVdomed
p2229
I2263
sVblind
p2230
I104
sVtennis
p2231
I3719
sVstriking
p2232
I2265
sVmountainside
p2233
I2266
sVflipping
p2234
I2267
sVcomprised
p2235
I2268
sVdirectly
p2236
I2269
sVmessage
p2237
I123
sVguitarists
p2238
I126
sVsheep
p2239
I2272
sVsheer
p2240
I2273
sVchecked
p2241
I2274
sVjugs
p2242
I2275
sVcaught
p2243
I2276
sVbreed
p2244
I2277
sVcarousel
p2245
I2278
sVnational
p2246
I2279
sVfriend
p2247
I2280
sVmostly
p2248
I2281
sVthat
p2249
I2282
sVexpanse
p2250
I2283
sVflowery
p2251
I2284
sVquad
p2252
I2285
sVthai
p2253
I2595
sVflowers
p2254
I2286
sVthan
p2255
I2287
sVprofessionals
p2256
I2288
sVtelevision
p2257
I2289
sVrugged
p2258
I2290
sVkarate
p2259
I2291
sVoverhang
p2260
I373
sVfruits
p2261
I2293
sVextinguish
p2262
I2294
sVgrooms
p2263
I2295
sVbrowses
p2264
I2296
sVangel
p2265
I2297
sVslam
p2266
I2298
sVdistorted
p2267
I2299
sVbreakfast
p2268
I2301
sVslab
p2269
I2302
sVform
p2270
I3721
sVveteran
p2271
I2304
sVequipment
p2272
I2306
sVbreakdances
p2273
I2307
sVbreakdancer
p2274
I2308
sVbegin
p2275
I2310
sVmountaineer
p2276
I2311
sVprice
p2277
I2312
sVneatly
p2278
I2313
sVfore
p2279
I2794
sVamerica
p2280
I366
sVsprinting
p2281
I2315
sVsteady
p2282
I2316
sVmrs
p2283
I388
sVsunset
p2284
I2317
sVclearing
p2285
I2318
sVprofessional
p2286
I2319
sVfiling
p2287
I2320
sVgerman
p2288
I2321
sVjewelery
p2289
I2322
sVfifth
p2290
I2323
sVground
p2291
I2324
sVsnack
p2292
I2325
sVbusily
p2293
I2326
sVstair
p2294
I2327
sVstained
p2295
I2328
sVonly
p2296
I2329
sVpumpkin
p2297
I2331
sVwelders
p2298
I2332
sVcannon
p2299
I2333
sVdragster
p2300
I2334
sVcannot
p2301
I2335
sVbracelets
p2302
I2336
sVstroll
p2303
I2338
sVleather
p2304
I2339
sVhusband
p2305
I2340
sVconcert
p2306
I2341
sVphysically
p2307
I2342
sVactively
p2308
I2343
sVasleep
p2309
I2344
sVsport
p2310
I2345
sVmcdonalds
p2311
I2606
sVisraeli
p2312
I2347
sVtackling
p2313
I2348
sVfascinated
p2314
I2349
sV3
I2350
sVskyscraper
p2315
I2351
sVbetween
p2316
I2352
sVnotice
p2317
I2353
sVarmenian
p2318
I2355
sVarticle
p2319
I2356
sVattaches
p2320
I2357
sVinstallation
p2321
I2358
sVfliers
p2322
I2359
sVmonk
p2323
I2360
sVwheels
p2324
I2361
sVcomes
p2325
I2362
sVnearby
p2326
I2363
sVfencers
p2327
I2364
sVinspecting
p2328
I6501
sVjeans
p2329
I2365
sVlearning
p2330
I2367
sVpigtails
p2331
I2368
sVsledding
p2332
I2369
sVcycling
p2333
I2370
sVtropical
p2334
I2371
sVobservers
p2335
I2372
sVlanguage
p2336
I2373
sVrubs
p2337
I2374
sVfoggy
p2338
I2375
sVskiers
p2339
I2376
sVthese
p2340
I2377
sVchinatown
p2341
I2378
sVhandicapped
p2342
I889
sValcoholic
p2343
I2380
sVsoil
p2344
I2381
sVinflatable
p2345
I2382
sVfigurines
p2346
I922
sVembrace
p2347
I2384
sVstewardess
p2348
I2385
sVheels
p2349
I2386
sVsomebody
p2350
I6086
sVwaterway
p2351
I2388
sVstickers
p2352
I2389
sVship
p2353
I3744
sVmedia
p2354
I2391
sVcoke
p2355
I2392
sVgentlemen
p2356
I2393
sVcoworkers
p2357
I2394
sVfigures
p2358
I1543
sVsweeper
p2359
I2396
sVfinish
p2360
I2397
sVclosest
p2361
I2398
sVsquatted
p2362
I2399
sVfoam
p2363
I2400
sVmarking
p2364
I2401
sVfruit
p2365
I2402
sVburrito
p2366
I1030
sVcharges
p2367
I1035
sVbagpipes
p2368
I2404
sVbreeze
p2369
I2405
sVpitbull
p2370
I2406
sVotherwise
p2371
I2407
sVtaxi
p2372
I2408
sVlivestock
p2373
I2409
sVtossing
p2374
I3749
sVdancers
p2375
I2411
sVneon
p2376
I2412
sVshouts
p2377
I2413
sVfoot
p2378
I2414
sVactor
p2379
I2509
sVtouch
p2380
I2415
sVspeed
p2381
I2416
sVdueling
p2382
I2417
sVsweatpants
p2383
I2418
sVmingling
p2384
I2419
sVsnowboarder
p2385
I2420
sVthinking
p2386
I2421
sVmirrored
p2387
I2422
sVdesktop
p2388
I2423
sVinstructions
p2389
I6092
sVswim
p2390
I2424
sVpropped
p2391
I2425
sVovercoat
p2392
I3246
sVbarbecuing
p2393
I2426
sVread
p2394
I2427
sVruler
p2395
I2428
sVspecimen
p2396
I1155
sVstools
p2397
I2429
sVearly
p2398
I2430
sVoverlooks
p2399
I2431
sVlistening
p2400
I2432
sVamp
p2401
I3336
sVlady
p2402
I2434
sVrear
p2403
I2435
sVfortune
p2404
I4295
sVconducts
p2405
I2438
sVstreamers
p2406
I1200
sVbenefit
p2407
I1208
sVblackberry
p2408
I1212
sVdownward
p2409
I2441
sVceremonial
p2410
I2442
sVtwelve
p2411
I2443
sVexposed
p2412
I2444
sVrecorder
p2413
I1291
sVwheat
p2414
I1301
sVbusiness
p2415
I2447
sVchefs
p2416
I2448
sVvolkswagen
p2417
I2449
sVsniffs
p2418
I2450
sVassemble
p2419
I2451
sVstrainer
p2420
I2452
sVexciting
p2421
I1337
sVthrow
p2422
I2454
sVuncrowded
p2423
I2455
sVplacard
p2424
I1351
sVpaints
p2425
I2457
sVchop
p2426
I2458
sVwolf
p2427
I2459
sVbackup
p2428
I2460
sVbarrels
p2429
I2461
sVearring
p2430
I2462
sVheated
p2431
I2463
sVelementary
p2432
I1425
sVyour
p2433
I2465
sVstare
p2434
I2466
sVsupervising
p2435
I2467
sVlog
p2436
I2468
sVprepare
p2437
I2469
sVarea
p2438
I2470
sVremoving
p2439
I1444
sVlos
p2440
I5184
sVcats
p2441
I1460
sVlow
p2442
I2472
sVstars
p2443
I1464
sVhuckabee
p2444
I2474
sVpitcher
p2445
I2475
sVpitches
p2446
I1492
sVcuriously
p2447
I2476
sVpitched
p2448
I2477
sVtrying
p2449
I2478
sVtoned
p2450
I2479
sVstrollers
p2451
I2480
sVembedded
p2452
I2481
sVbucket
p2453
I2482
sVbucked
p2454
I1540
sVwristbands
p2455
I2483
sVtutus
p2456
I2484
sVwrestlers
p2457
I2485
sVoxen
p2458
I2486
sVdescribe
p2459
I2488
sVsales
p2460
I2489
sVmoves
p2461
I1573
sVnerf
p2462
I2491
sVcabinets
p2463
I1582
sVbackstroke
p2464
I2493
sVstorage
p2465
I2494
sVgambling
p2466
I2495
sVyou
p2467
I2496
sVpoor
p2468
I2497
sVtreks
p2469
I2498
sVdrift
p2470
I1629
sVcarpenter
p2471
I2499
sVwields
p2472
I2500
sVpodium
p2473
I2501
sVpeak
p2474
I2502
sVsuited
p2475
I2503
sVtorches
p2476
I2504
sVpooh
p2477
I2505
sVbanners
p2478
I2506
sVpool
p2479
I2507
sVbuilding
p2480
I2508
sVvines
p2481
I2510
sVbystander
p2482
I2511
sVembracing
p2483
I2512
sVstrings
p2484
I2513
sVmannequin
p2485
I1559
sVskeleton
p2486
I2515
sVpointing
p2487
I2516
sVpeacock
p2488
I2517
sVsplitting
p2489
I2518
sVmp3
p2490
I2519
sVmessy
p2491
I2520
sVreligious
p2492
I1709
sVcarpet
p2493
I2522
sVgymnast
p2494
I2523
sVfountain
p2495
I2524
sVvery
p2496
I2525
sVrobes
p2497
I2526
sVscrewdriver
p2498
I2527
sVbalancing
p2499
I2529
sVdecide
p2500
I2530
sVheadgear
p2501
I2531
sVrobed
p2502
I2532
sVsegway
p2503
I1792
sVstudy
p2504
I2533
sVlocomotive
p2505
I2534
sVdunk
p2506
I2535
sVcookies
p2507
I2536
sVfence
p2508
I2537
sVstreets
p2509
I2538
sVcasual
p2510
I2539
sVtussle
p2511
I2540
sVdarkness
p2512
I2541
sVdribbling
p2513
I2542
sVunicycle
p2514
I2543
sVloose
p2515
I2545
sVvenice
p2516
I2546
sVanswers
p2517
I2547
sVtracks
p2518
I2549
sVpub
p2519
I2550
sVtrunk
p2520
I2551
sVstrong
p2521
I2552
sVarena
p2522
I2553
sVheadscarf
p2523
I2521
sVcolored
p2524
I2554
sVahead
p2525
I2555
sVinspired
p2526
I2556
sVcreepy
p2527
I2557
sVsoldier
p2528
I2558
sVamount
p2529
I2559
sVadvertising
p2530
I2560
sVreal
p2531
I2561
sVuniquely
p2532
I2562
sVfamily
p2533
I2563
sVtrained
p2534
I2564
sVtoys
p2535
I2565
sVthatched
p2536
I2566
sVteach
p2537
I6112
sVtakes
p2538
I2568
sVcontains
p2539
I2569
sVtaken
p2540
I2570
sVlowering
p2541
I2057
sVkayakers
p2542
I2572
sVdior
p2543
I2573
sVmounted
p2544
I2574
sVgrill
p2545
I2575
sVsweeps
p2546
I2577
sVnine
p2547
I2578
sVparasol
p2548
I2579
sVpushes
p2549
I2580
sVpushed
p2550
I2581
sVcows
p2551
I2582
sVmagenta
p2552
I2583
sVhamburgers
p2553
I2584
sVchops
p2554
I2585
sVledges
p2555
I2586
sVmenus
p2556
I2587
sVwigs
p2557
I2588
sVtried
p2558
I2589
sVcommunicating
p2559
I2590
sVtries
p2560
I2591
sVhorizontal
p2561
I2592
sVa
I2593
sVfallen
p2562
I6120
sVracetrack
p2563
I2596
sVchopsticks
p2564
I2309
sVcrafts
p2565
I2597
sVbanks
p2566
I2598
sVinline
p2567
I2599
sVegg
p2568
I2600
sVhelp
p2569
I2602
sVcyclists
p2570
I2603
sVheld
p2571
I2604
sVhell
p2572
I2605
sVclarinet
p2573
I2346
sVcarpeted
p2574
I2607
sVevening
p2575
I2609
sVyo
p2576
I2610
sVfood
p2577
I2611
sVcupcake
p2578
I2612
sVstarbucks
p2579
I2614
sVsweeping
p2580
I2615
sVninja
p2581
I2616
sVdesperately
p2582
I2617
sVfully
p2583
I2618
sVkayaking
p2584
I2619
sVstopped
p2585
I2621
sVfairy
p2586
I2622
sVtrailer
p2587
I2623
sVheavy
p2588
I2624
sVsoapy
p2589
I6127
sVpositioned
p2590
I2626
sVbeyond
p2591
I2627
sVevent
p2592
I2628
sVtravels
p2593
I2629
sVsurrounded
p2594
I2630
sVmeditating
p2595
I2631
sVsafety
p2596
I2632
sV7
I2633
sVmittens
p2597
I2634
sVsmock
p2598
I2635
sVbald
p2599
I1579
sVbass
p2600
I2638
sVdirt
p2601
I2639
sVpug
p2602
I2640
sVdune
p2603
I2641
sVhouses
p2604
I2642
sVreason
p2605
I2643
sVbase
p2606
I2644
sVcoastline
p2607
I2645
sVput
p2608
I2646
sVrevolutionary
p2609
I5976
sVdishwasher
p2610
I2647
sVlaunch
p2611
I2649
sVround
p2612
I3788
sVcheering
p2613
I2650
sVamerican
p2614
I2651
sVbusinessmen
p2615
I2652
sVscouts
p2616
I2653
sVinterviews
p2617
I6098
sVreflected
p2618
I2657
sVelder
p2619
I2658
sVhangs
p2620
I6134
sVmist
p2621
I2660
sVsplattered
p2622
I2661
sVikea
p2623
I1584
sVmaple
p2624
I2663
sVhorse
p2625
I2664
sVblossom
p2626
I2665
sVairborne
p2627
I2666
sVpinned
p2628
I2667
sVstation
p2629
I2669
sVbanana
p2630
I2670
sVsquirts
p2631
I2671
sVbowed
p2632
I2672
sVselling
p2633
I2673
sVstorm
p2634
I6136
sVsign
p2635
I2675
sVleotard
p2636
I2676
sVgrocery
p2637
I2677
sVtunic
p2638
I2678
sVperformers
p2639
I2679
sVphotographing
p2640
I6138
sVbride
p2641
I2681
sVtoward
p2642
I2682
sVmickey
p2643
I2684
sVdeciding
p2644
I2685
sVkart
p2645
I2686
sVjuice
p2646
I2688
sVevents
p2647
I5836
sVconcentration
p2648
I2690
sVlid
p2649
I2691
sVlie
p2650
I2692
sVconstructions
p2651
I2693
sVhenna
p2652
I1871
sVofficers
p2653
I2695
sVcamouflage
p2654
I2696
sVlit
p2655
I2697
sVswallowing
p2656
I2698
sVlip
p2657
I2699
sVplaypen
p2658
I2700
sVtowards
p2659
I2701
sVsponsored
p2660
I2702
sVposition
p2661
I2703
sVarchery
p2662
I2704
sVmobile
p2663
I2705
sVclear
p2664
I2706
sVsnapping
p2665
I2708
sVtongs
p2666
I2709
sVclean
p2667
I2710
sVtubes
p2668
I2711
sVhips
p2669
I2712
sVcowgirl
p2670
I2713
sVbarbell
p2671
I2714
sVcrayon
p2672
I2715
sVcoaster
p2673
I5015
sVseries
p2674
I2717
sVscooter
p2675
I2718
sVflights
p2676
I2719
sVpretty
p2677
I2720
sVcircle
p2678
I2721
sVtrees
p2679
I2723
sVspeckled
p2680
I2724
sVfamous
p2681
I2725
sVfeels
p2682
I2726
sVpretending
p2683
I2727
sVcompeting
p2684
I2728
sVduring
p2685
I2729
sVfootballers
p2686
I4498
sVchimney
p2687
I2730
sVcatches
p2688
I2731
sVgloved
p2689
I2732
sVcelebrates
p2690
I4713
sVgloves
p2691
I2734
sVcorgi
p2692
I2735
sVthrowing
p2693
I2736
sVoutboard
p2694
I2737
sVculture
p2695
I2738
sVportrait
p2696
I2740
sVlocals
p2697
I647
sVpatties
p2698
I2741
sVpictures
p2699
I2742
sVwow
p2700
I2743
sVwon
p2701
I2744
sVwok
p2702
I2745
sVprobably
p2703
I3151
sVconditions
p2704
I2746
sVpictured
p2705
I2747
sVmissing
p2706
I52
sVspray
p2707
I2748
sVreadying
p2708
I2749
sVleague
p2709
I3197
sVboxers
p2710
I2751
sVvault
p2711
I2752
sVstoplight
p2712
I2753
sVheaded
p2713
I2754
sVwhatever
p2714
I3250
sVheader
p2715
I250
sVbadminton
p2716
I2758
sVclimbers
p2717
I2759
sVvessel
p2718
I2760
sVnaps
p2719
I2761
sVdamp
p2720
I2762
sVmaintenance
p2721
I2763
sVcollected
p2722
I2764
sVinstructing
p2723
I2765
sVempty
p2724
I2766
sVdame
p2725
I2767
sVpartly
p2726
I2768
sVpacks
p2727
I2770
sVwet
p2728
I1600
sVimac
p2729
I2772
sVelse
p2730
I3333
sVlives
p2731
I2773
sVgrills
p2732
I2774
sVloom
p2733
I2775
sVlook
p2734
I2776
sVbattling
p2735
I3812
sVrope
p2736
I2778
sVwhile
p2737
I3369
sVsmart
p2738
I2780
sVanimated
p2739
I2781
sVbiking
p2740
I2782
sVguide
p2741
I2783
sVloop
p2742
I2784
sVpack
p2743
I2785
sVembroidered
p2744
I2786
sVreads
p2745
I2787
sVwildflowers
p2746
I2788
sVready
p2747
I2789
sVfedora
p2748
I2790
sVshuttered
p2749
I2791
sVmakeshift
p2750
I2792
sVgrand
p2751
I2793
sVgestures
p2752
I4576
sVhallway
p2753
I2795
sVused
p2754
I2796
sVclassmates
p2755
I2797
sVoverweight
p2756
I2798
sVyoungsters
p2757
I2799
sVuses
p2758
I2800
sVcleaning
p2759
I2801
sVcityscape
p2760
I2802
sVassortment
p2761
I3501
sVolder
p2762
I2804
sVdocked
p2763
I2805
sVhaul
p2764
I1605
sVgrind
p2765
I2807
sVclears
p2766
I2809
sVyankees
p2767
I2811
sVflaming
p2768
I2694
sVbearer
p2769
I2813
sVpraying
p2770
I2815
sVafro
p2771
I2816
sV$
I2817
sVinformal
p2772
I2818
sVcemetery
p2773
I2819
sVexercising
p2774
I2820
sVmarch
p2775
I2822
sVshowing
p2776
I2823
sVenthusiastically
p2777
I2824
sVgame
p2778
I2825
sVwings
p2779
I2826
sVbanjo
p2780
I6165
sVvests
p2781
I2828
sVsignal
p2782
I2830
sVtoyota
p2783
I3690
sVchairs
p2784
I1611
sVvibrant
p2785
I5030
sVpopular
p2786
I3702
sVsaddled
p2787
I2834
sVsketch
p2788
I2835
sVparade
p2789
I3717
sVmauve
p2790
I2837
sVfathers
p2791
I2838
sVcreation
p2792
I2839
sVsome
p2793
I2840
sVconey
p2794
I2841
sVlips
p2795
I2842
sVtrendy
p2796
I2843
sVmustang
p2797
I2844
sVdilapidated
p2798
I2845
sVpounding
p2799
I2846
sVsweating
p2800
I2847
sVeating
p2801
I3796
sVbooklet
p2802
I2849
sVbazaar
p2803
I2453
sVprocessing
p2804
I3803
sVrug
p2805
I2850
sVstep
p2806
I2851
sVassists
p2807
I2852
sValleyway
p2808
I2853
sVpitchers
p2809
I2854
sVshine
p2810
I2855
sVhandbags
p2811
I2856
sVshiny
p2812
I2858
sVblock
p2813
I2859
sVseeing
p2814
I2860
sVvisit
p2815
I3827
sVwithin
p2816
I2861
sVrollerblade
p2817
I2862
sVsprawled
p2818
I2863
sVrolls
p2819
I3913
sVplacing
p2820
I2864
sVhimself
p2821
I2865
sVdips
p2822
I2866
sVproperly
p2823
I2867
sVrussian
p2824
I2868
sVskull
p2825
I2869
sVsifting
p2826
I2870
sVsimilar
p2827
I2871
sVadults
p2828
I2872
sVinnertube
p2829
I6667
sVamphitheater
p2830
I2873
sVcotton
p2831
I4083
sVamounts
p2832
I2874
sVnap
p2833
I2875
sVelectrical
p2834
I2876
sVkickboxing
p2835
I2877
sVdepartment
p2836
I2878
sVaprons
p2837
I2879
sVsmiles
p2838
I2880
sVdraw
p2839
I2881
sVclaus
p2840
I2882
sVspectators
p2841
I2883
sVcrouching
p2842
I2884
sVlunging
p2843
I2885
sVdrag
p2844
I2886
sVformal
p2845
I2887
sVstructure
p2846
I2888
sVe
I2889
sVouting
p2847
I2890
sVclenched
p2848
I2891
sVpamphlets
p2849
I4204
sVparamedic
p2850
I5167
sVrequires
p2851
I2892
sVnuns
p2852
I2893
sVdesserts
p2853
I2894
sVgo
p2854
I2895
sVbarbecue
p2855
I2896
sVgi
p2856
I2897
sVcompact
p2857
I2898
sVmimes
p2858
I6184
sVwizard
p2859
I2900
sVmosque
p2860
I2901
sVarid
p2861
I2902
sVnose
p2862
I2903
sVattired
p2863
I2904
sVshack
p2864
I4290
sVcluttered
p2865
I2907
sVfriendly
p2866
I2908
sVmuzzles
p2867
I2909
sVukulele
p2868
I4331
sVfishnet
p2869
I2911
sVkitty
p2870
I2912
sVwave
p2871
I2913
sVwavy
p2872
I4351
sVtrough
p2873
I2915
sVcellular
p2874
I2916
sVtelling
p2875
I2917
sVsombreros
p2876
I2918
sVexits
p2877
I2919
sVsnowboards
p2878
I4378
sVpositions
p2879
I2920
sVbutton
p2880
I2921
sVornately
p2881
I2922
sVcomforts
p2882
I2923
sVpicker
p2883
I2924
sVpicket
p2884
I2925
sVtemporary
p2885
I3477
sVboots
p2886
I2927
sVwaking
p2887
I2928
sVjump
p2888
I2929
sVnoise
p2889
I2930
sVgraying
p2890
I2931
sVbooth
p2891
I2932
sVpicked
p2892
I2933
sVsausage
p2893
I2934
sVcupcakes
p2894
I2935
sVplays
p2895
I2936
sVpaintings
p2896
I2937
sVwallet
p2897
I2938
sVespresso
p2898
I2940
sVcell
p2899
I2941
sVexperiment
p2900
I2942
sVpoles
p2901
I2943
sVreferees
p2902
I2944
sVpristine
p2903
I2945
sVfocuses
p2904
I2946
sVshoreline
p2905
I2947
sVstance
p2906
I2948
sVcommercial
p2907
I2949
sVfocused
p2908
I2950
sVpancake
p2909
I2951
sVponytails
p2910
I2952
sVproducts
p2911
I2953
sVwig
p2912
I4584
sVexamining
p2913
I2954
sVaddresses
p2914
I2955
sVpitch
p2915
I2956
sVwin
p2916
I2957
sVsparklers
p2917
I2958
sVwii
p2918
I2959
sVwit
p2919
I2960
sVapples
p2920
I2292
sVsinging
p2921
I2961
sVcloud
p2922
I2962
sVstrapped
p2923
I2963
sVremains
p2924
I2964
sVcamera
p2925
I2965
sVcrab
p2926
I2966
sVvehicle
p2927
I2967
sVhiding
p2928
I1632
sVcheeks
p2929
I2969
sVformally
p2930
I2970
sVstarted
p2931
I2971
sVbecomes
p2932
I2972
sVcarvings
p2933
I2973
sVvisibility
p2934
I2974
sVcrosses
p2935
I2976
sVarched
p2936
I2977
sVsalad
p2937
I2978
sVride
p2938
I2979
sVdonut
p2939
I2980
sVarches
p2940
I4718
sVarcher
p2941
I2981
sVcrossed
p2942
I2982
sVmeet
p2943
I2983
sVdrops
p2944
I2984
sVrepairman
p2945
I2985
sVcontrol
p2946
I2986
sVbeijing
p2947
I4741
sVwharf
p2948
I2987
sVadmires
p2949
I2988
sVlinks
p2950
I2182
sVhalloween
p2951
I2989
sVpulling
p2952
I2990
sVsuds
p2953
I2991
sVwonderful
p2954
I2992
sVskirt
p2955
I2993
sVpicturesque
p2956
I2995
sVcampers
p2957
I2996
sVafricans
p2958
I2997
sVarrangement
p2959
I2998
sVlocated
p2960
I2999
sVcircular
p2961
I3000
sVfare
p2962
I3001
sVfarm
p2963
I3002
sVpeeling
p2964
I3003
sVpeace
p2965
I6362
sVbelongings
p2966
I3005
sVrickety
p2967
I6747
sVcorral
p2968
I3006
sVscoop
p2969
I3007
sVbakery
p2970
I3008
sVhealthcare
p2971
I3010
sVbathing
p2972
I3011
sVbasement
p2973
I3012
sVincluding
p2974
I3013
sVcostume
p2975
I3014
sVcruise
p2976
I3015
sVouter
p2977
I3016
sVbroom
p2978
I3017
sVnotebooks
p2979
I3018
sVhim
p2980
I6197
sVyoungster
p2981
I3020
sVgymnasts
p2982
I3021
sVsword
p2983
I3860
sVsurrounds
p2984
I3023
sVauto
p2985
I3024
sVsweets
p2986
I3025
sVcatcher
p2987
I3026
sVhands
p2988
I3027
sVfront
p2989
I3028
sVuniversity
p2990
I3029
sVslide
p2991
I3030
sVcrossing
p2992
I3031
sVshaking
p2993
I3032
sVupward
p2994
I3033
sVseniors
p2995
I3034
sVshowering
p2996
I3035
sVglobe
p2997
I3036
sVmulticolored
p2998
I3037
sVseesaw
p2999
I3038
sVsands
p3000
I3039
sVexplores
p3001
I3040
sVsteadies
p3002
I3041
sVsandy
p3003
I3042
sVlittered
p3004
I5104
sVarmor
p3005
I3045
sVmay
p3006
I3869
sVplayground
p3007
I3047
sVcause
p3008
I3048
sVumbrella
p3009
I3049
sVhopscotch
p3010
I3050
sVdarkly
p3011
I5163
sVattending
p3012
I3052
sVcompletely
p3013
I3053
sVx
I3054
sVceltics
p3014
I3055
sVunderpass
p3015
I3056
sVprincess
p3016
I3057
sVfarmland
p3017
I3058
sVroute
p3018
I3059
sVflorida
p3019
I3061
sVkeep
p3020
I3062
sVstride
p3021
I5201
sVwading
p3022
I3063
sVstainless
p3023
I5066
sVbuckle
p3024
I3065
sVdesigned
p3025
I3871
sVyong
p3026
I3068
sVpowerful
p3027
I3069
sVart
p3028
I6204
sVconga
p3029
I3071
sVbears
p3030
I3073
sVsquinting
p3031
I3074
sVwrapper
p3032
I3075
sVattack
p3033
I3076
sVankle
p3034
I5297
sVfinal
p3035
I3287
sVpaved
p3036
I5304
sVchemicals
p3037
I3080
sVgolfers
p3038
I3081
sVbassist
p3039
I3082
sVfuzzy
p3040
I3083
sVherself
p3041
I3084
sVnewlywed
p3042
I3085
sVwaist
p3043
I3086
sVphotograph
p3044
I3087
sVcoast
p3045
I3565
sVbed
p3046
I3088
sVbee
p3047
I3089
sVfirework
p3048
I5370
sVproviding
p3049
I3091
sVexhibit
p3050
I3093
sVfunction
p3051
I1649
sVlightly
p3052
I3095
sVcarrots
p3053
I3096
sVgrayish
p3054
I3097
sVsundown
p3055
I2157
sVclose
p3056
I3099
sVneed
p3057
I3100
sVborder
p3058
I3101
sVemptying
p3059
I3102
sVsings
p3060
I3103
sVmicrophone
p3061
I5426
sVsprinkles
p3062
I3105
sVsprinkler
p3063
I3106
sVpursued
p3064
I3107
sVable
p3065
I3108
sVpurchasing
p3066
I3109
sVtruck
p3067
I3110
sVdetector
p3068
I3111
sVvisor
p3069
I3112
sVmountaintop
p3070
I3113
sVmedals
p3071
I3114
sVpassionately
p3072
I3115
sVsewing
p3073
I3116
sVcamper
p3074
I3117
sVplugging
p3075
I3118
sVconnected
p3076
I3120
sVbeanbags
p3077
I3121
sVawe
p3078
I3122
sVgallery
p3079
I3123
sVcellphone
p3080
I3124
sVupset
p3081
I3125
sVlowered
p3082
I1652
sVtalk
p3083
I3882
sVbusinessman
p3084
I3128
sVemerging
p3085
I3129
sVkiddie
p3086
I3130
sVindoor
p3087
I3131
sVcrate
p3088
I3132
sVparked
p3089
I3133
sVsoldiers
p3090
I3134
sVshoes
p3091
I3885
sVpartners
p3092
I3136
sVbased
p3093
I3137
sVunfinished
p3094
I3138
sVtire
p3095
I3139
sVwinner
p3096
I3140
sVrash
p3097
I3141
sVbases
p3098
I3143
sVemployee
p3099
I3144
sVsurfs
p3100
I3145
sVcrumbling
p3101
I3147
sVtrashcans
p3102
I3148
sVoverall
p3103
I3149
sVsipping
p3104
I3150
sVgray
p3105
I3154
sVsowing
p3106
I3155
sVtobacco
p3107
I3156
sVgras
p3108
I5880
sVmotorboat
p3109
I3158
sVoverflowing
p3110
I3159
sVtunes
p3111
I3160
sVuniformed
p3112
I3161
sVspotted
p3113
I3163
sVburying
p3114
I5689
sVhardwood
p3115
I3164
sVshake
p3116
I3890
sVhumans
p3117
I3166
sVoperates
p3118
I3167
sVcomputer
p3119
I3169
sVdriveway
p3120
I3170
sVoperated
p3121
I3171
sVplaced
p3122
I1661
sVtend
p3123
I3173
sVwritten
p3124
I3174
sVtent
p3125
I3175
sVattention
p3126
I6223
sVhurrying
p3127
I3178
sVkicking
p3128
I3179
sVmerry
p3129
I3180
sVpolice
p3130
I3892
sVhits
p3131
I3183
sVaqua
p3132
I3184
sVjersey
p3133
I3185
sVjim
p3134
I3186
sVspandex
p3135
I3187
sVsari
p3136
I3188
sVbricked
p3137
I3189
sVpolka
p3138
I3190
sVslowly
p3139
I3191
sVtreat
p3140
I3192
sVshoulders
p3141
I3194
sVcontrolled
p3142
I3196
sVhoisted
p3143
I1065
sVreleasing
p3144
I3198
sVheadlamp
p3145
I3199
sVschoolgirls
p3146
I3200
sVtopless
p3147
I3201
sVcontroller
p3148
I3202
sVkicks
p3149
I3204
sVsmoking
p3150
I3205
sVdigger
p3151
I3206
sVnovel
p3152
I3207
sVchalk
p3153
I3208
sVkabobs
p3154
I3898
sVtaupe
p3155
I3210
sVwaterskier
p3156
I3211
sVexamines
p3157
I3212
sVsurface
p3158
I3213
sVexamined
p3159
I3214
sVswinging
p3160
I3215
sVclaps
p3161
I3216
sVbucks
p3162
I3217
sVlambs
p3163
I3218
sVconical
p3164
I3219
sVcapture
p3165
I3220
sVballoon
p3166
I3221
sVparts
p3167
I3223
sVspeaker
p3168
I3224
sVunderground
p3169
I3225
sVparty
p3170
I3226
sVfireman
p3171
I3227
sVeccentric
p3172
I6107
sVpreteen
p3173
I3228
sVfierce
p3174
I3229
sVpoultry
p3175
I3230
sVtransaction
p3176
I3231
sVweld
p3177
I3232
sVreflection
p3178
I3233
sVlunch
p3179
I3901
sVi
I3234
sVobstacles
p3180
I3235
sVwell
p3181
I3236
sVrodgers
p3182
I3237
sVrink
p3183
I3238
sVflexing
p3184
I3239
sVawning
p3185
I3240
sVadvertises
p3186
I4375
sVtaller
p3187
I3241
sVdistant
p3188
I3242
sVskill
p3189
I3243
sVbarefooted
p3190
I3244
sVextends
p3191
I3245
sVballoons
p3192
I3247
sVkick
p3193
I3248
sVoar
p3194
I5097
sVflashing
p3195
I5872
sVhistoric
p3196
I3249
sVawnings
p3197
I2756
sVunseen
p3198
I3251
sVbottoms
p3199
I3252
sVpropeller
p3200
I3253
sVintersection
p3201
I3254
sVprominent
p3202
I3255
sVlincoln
p3203
I3256
sVlost
p3204
I3257
sVsizes
p3205
I3258
sVclown
p3206
I3259
sVtaping
p3207
I3260
sVsized
p3208
I3261
sVpage
p3209
I3262
sVshed
p3210
I3263
sVlibrary
p3211
I3264
sVfrisbee
p3212
I1677
sVshes
p3213
I3266
sVhome
p3214
I3267
sVcompetitor
p3215
I3268
sVsteaming
p3216
I3269
sVdemonstrates
p3217
I3270
sVkettle
p3218
I3271
sVgrinding
p3219
I3272
sVfanny
p3220
I6408
sVmedieval
p3221
I3274
sVreaching
p3222
I3275
sVgoatee
p3223
I3276
sVclarinets
p3224
I3277
sVgraffited
p3225
I3278
sVcleans
p3226
I3279
sVnightclub
p3227
I3280
sVrodeo
p3228
I3281
sVtoppings
p3229
I3282
sVbeige
p3230
I3283
sVpuppies
p3231
I3284
sVtongue
p3232
I3285
sVpastries
p3233
I3286
sVequally
p3234
I6495
sVwashington
p3235
I3288
sVcongregate
p3236
I3289
sVtreads
p3237
I3290
sVartists
p3238
I3291
sVdug
p3239
I2668
sVutility
p3240
I3293
sVwhom
p3241
I6243
sVmuseum
p3242
I3294
sVprotectors
p3243
I6544
sVinner
p3244
I3295
sVbackhand
p3245
I3296
sVcricket
p3246
I3297
sVnorth
p3247
I3298
sVfountains
p3248
I3299
sVneutral
p3249
I3300
sVstrawberries
p3250
I3301
sVgain
p3251
I3302
sVtechnician
p3252
I3303
sVsprinkling
p3253
I3304
sVear
p3254
I3305
sVeat
p3255
I3306
sVhe
p3256
I3307
sVrappelling
p3257
I3308
sVcells
p3258
I3309
sVsigned
p3259
I3310
sVcarriage
p3260
I3311
sVstories
p3261
I3312
sVcello
p3262
I3313
sVpiece
p3263
I3314
sVdisplay
p3264
I3315
sVdiligently
p3265
I3316
sVmarketplace
p3266
I3317
sVkisses
p3267
I3319
sVutensils
p3268
I3320
sVbeats
p3269
I3321
sVkissed
p3270
I3322
sVbalcony
p3271
I3323
sVcontest
p3272
I3324
sVfencing
p3273
I3325
sVtalkie
p3274
I6682
sVjamming
p3275
I3326
sVstar
p3276
I3327
sVliving
p3277
I3911
sVstay
p3278
I3329
sVrefreshments
p3279
I3330
sVfoil
p3280
I3331
sVnintendo
p3281
I3332
sVfriends
p3282
I3334
sVusing
p3283
I2433
sVsamsung
p3284
I3337
sVportion
p3285
I3338
sVprotest
p3286
I3339
sVasian
p3287
I3340
sVconsists
p3288
I3341
sVsashes
p3289
I3342
sVwhose
p3290
I3343
sVswan
p3291
I3344
sVpainters
p3292
I60
sVtrousers
p3293
I3346
sVteaching
p3294
I3347
sVhats
p3295
I5110
sVfists
p3296
I3349
sVrescue
p3297
I3350
sVvase
p3298
I3351
sVvast
p3299
I3352
sVbaking
p3300
I3353
sVskills
p3301
I115
sVsolution
p3302
I3355
sVconvenience
p3303
I3356
sVgreenish
p3304
I3357
sVemployees
p3305
I1725
sVups
p3306
I138
sVclothes
p3307
I3359
sVforce
p3308
I3360
sVquilt
p3309
I3361
sVlavender
p3310
I159
sVacross
p3311
I3364
sVlikely
p3312
I163
sVcactus
p3313
I3365
sVcolourful
p3314
I3366
sVeven
p3315
I3367
sVorchestra
p3316
I3368
sVbikini
p3317
I2779
sVasia
p3318
I3370
sVlights
p3319
I3371
sVnew
p3320
I3372
sVtips
p3321
I226
sVhelmets
p3322
I3374
sVscreams
p3323
I3375
sVpancakes
p3324
I3376
sVwakeboard
p3325
I3377
sVmen
p3326
I3378
sVdisposable
p3327
I3379
sVactive
p3328
I3380
sVcardboard
p3329
I3381
sVdry
p3330
I3382
sVrests
p3331
I3383
sVpiercing
p3332
I3385
sVtaped
p3333
I3386
sVparasailer
p3334
I3387
sVcomplicated
p3335
I3388
sVwelding
p3336
I6263
sVadolescents
p3337
I2689
sVheeled
p3338
I3390
sVintensely
p3339
I3391
sVcampaign
p3340
I3392
sVslices
p3341
I3393
sVcounty
p3342
I328
sVguests
p3343
I3394
sVjackets
p3344
I3395
sVhandlebar
p3345
I3396
sVlandscape
p3346
I3397
sVarmy
p3347
I3399
sVwatering
p3348
I3400
sVbarks
p3349
I3401
sVarms
p3350
I3402
sVcall
p3351
I372
sVcalm
p3352
I3404
sVtype
p3353
I3405
sVtell
p3354
I3406
sVcalf
p3355
I3407
sVposting
p3356
I390
sVwars
p3357
I3408
sVberlin
p3358
I3409
sVwarm
p3359
I3410
sVadult
p3360
I3411
sVroom
p3361
I3412
sVtrots
p3362
I3413
sVsetup
p3363
I3414
sVcellos
p3364
I3415
sVroof
p3365
I3416
sVrim
p3366
I6266
sVfoliage
p3367
I3418
sVroot
p3368
I3419
sVbarbers
p3369
I3420
sVsquirting
p3370
I3421
sVgive
p3371
I3422
sVlaughs
p3372
I3423
sVfoods
p3373
I3424
sVsideline
p3374
I3426
sVbraids
p3375
I3427
sVamazing
p3376
I3428
sVanswer
p3377
I3429
sVscooters
p3378
I3430
sVaboard
p3379
I568
sVbriefcase
p3380
I3432
sVreplacing
p3381
I3433
sVcadillac
p3382
I3434
sVpassageway
p3383
I3435
sVwaterfront
p3384
I3436
sVpresident
p3385
I3437
sVbagpipers
p3386
I3438
sVbushes
p3387
I6114
sVshirt
p3388
I6269
sVpurchase
p3389
I3440
sVattempt
p3390
I3441
sVthird
p3391
I3442
sVdescends
p3392
I3443
sVcheckerboard
p3393
I617
sVleggings
p3394
I5125
sVoperate
p3395
I3445
sVathletes
p3396
I3446
sVdeck
p3397
I3448
sVhairnet
p3398
I3449
sVkeyboard
p3399
I3450
sVwindshield
p3400
I3451
sVbefore
p3401
I3452
sVscoring
p3402
I3453
sVunicef
p3403
I3454
sVharmonica
p3404
I3455
sVpersonal
p3405
I3456
sVsoaking
p3406
I3457
sVcrew
p3407
I3458
sVbetter
p3408
I698
sVcarve
p3409
I3460
sVworkout
p3410
I3462
sVone
p3411
I3463
sVmotorcyclist
p3412
I5131
sVarrested
p3413
I3465
sVleaned
p3414
I3466
sVacoustic
p3415
I3467
sVwent
p3416
I773
sVside
p3417
I779
sVbone
p3418
I3469
sVmean
p3419
I3470
sVcalmly
p3420
I3471
sVadobe
p3421
I3472
sVtaught
p3422
I3474
sVnavy
p3423
I3476
sVaids
p3424
I4228
sVenclosure
p3425
I3478
sVvelvet
p3426
I3479
sVsparkly
p3427
I3480
sVpatricks
p3428
I3481
sVsurprise
p3429
I3482
sVturning
p3430
I3483
sVascending
p3431
I3484
sVstruggle
p3432
I3485
sVhoodie
p3433
I3486
sVbacklit
p3434
I3487
sVtelescopes
p3435
I3488
sVaisle
p3436
I924
sVshaggy
p3437
I3489
sVstarts
p3438
I3490
sVmessages
p3439
I942
sVfiretrucks
p3440
I3491
sVloud
p3441
I965
sVfeatures
p3442
I3493
sVhoop
p3443
I3494
sVwalkers
p3444
I3495
sVhook
p3445
I3496
sVfeatured
p3446
I3497
sVfloors
p3447
I3498
sVcomforter
p3448
I3499
sVditch
p3449
I3500
sVplugs
p3450
I2803
sVhood
p3451
I3502
sVhydrant
p3452
I3503
sVswaddled
p3453
I3504
sVgirls
p3454
I3505
sVboating
p3455
I3506
sVtwenties
p3456
I584
sVhollywood
p3457
I3060
sVtwister
p3458
I3508
sVbouncing
p3459
I3510
sVgym
p3460
I3511
sVdigs
p3461
I3512
sVshoppers
p3462
I588
sVsomewhat
p3463
I3514
sVstocking
p3464
I3515
sVbegins
p3465
I1077
sVdistance
p3466
I3517
sVpreparation
p3467
I3518
sVsilly
p3468
I3519
sVmermaid
p3469
I3520
sVloiter
p3470
I3521
sVmini
p3471
I3522
sVsees
p3472
I3523
sVpalace
p3473
I3524
sVbounces
p3474
I6283
sVmodern
p3475
I3526
sVmine
p3476
I1132
sVseen
p3477
I3527
sVseem
p3478
I3528
sVseek
p3479
I3529
sVtells
p3480
I3530
sVfitting
p3481
I3531
sVchess
p3482
I3532
sVhoods
p3483
I3533
sVquarterback
p3484
I3534
sVcaricatures
p3485
I3535
sVwrists
p3486
I3536
sVtye
p3487
I1209
sVllamas
p3488
I3537
sVgrins
p3489
I3538
sVassisting
p3490
I3539
sVobservation
p3491
I356
sVmedical
p3492
I3540
sVm
I1255
sVdog
p3493
I3542
sVstating
p3494
I6288
sVcompetitors
p3495
I3543
sVpoints
p3496
I3544
sVpointy
p3497
I3545
sVdot
p3498
I3546
sVaquatic
p3499
I3547
sVattempts
p3500
I3548
sVstepping
p3501
I3549
sVjudges
p3502
I3551
sVfolded
p3503
I3552
sVcelery
p3504
I3553
sVfolks
p3505
I3554
sVfolder
p3506
I3555
sVscrubbing
p3507
I3557
sVwearing
p3508
I3558
sVtiles
p3509
I3559
sVcolorful
p3510
I3560
sVbeater
p3511
I5151
sVstop
p3512
I3564
sVheavyset
p3513
I1391
sVcracks
p3514
I3566
sVwatermelon
p3515
I3567
sVtiled
p3516
I3568
sVbat
p3517
I3569
sVtraverses
p3518
I1412
sVfields
p3519
I3571
sVbay
p3520
I3572
sVbag
p3521
I3573
sVbad
p3522
I1432
sVarchitecture
p3523
I1433
sVgrilled
p3524
I3577
sVears
p3525
I3578
sVlettering
p3526
I3579
sVdecides
p3527
I3580
sVfluffy
p3528
I3581
sVtesting
p3529
I3582
sVdecided
p3530
I3583
sVsubject
p3531
I3584
sVpebbles
p3532
I1491
sVsaid
p3533
I3586
sVscrap
p3534
I3587
sVsail
p3535
I1502
sVshaved
p3536
I3588
sVartificial
p3537
I3589
sVwetsuit
p3538
I3590
sVolympics
p3539
I3591
sVpets
p3540
I3592
sVsorts
p3541
I1518
sVwarrior
p3542
I3594
sVcrayons
p3543
I3595
sVwears
p3544
I3596
sVvacuuming
p3545
I3597
sVmodeling
p3546
I3598
sVpicking
p3547
I3599
sVmaneuvers
p3548
I3600
sVjanitor
p3549
I600
sVagainst
p3550
I3602
sVbookcase
p3551
I3603
sVpeddling
p3552
I3604
sVpresumably
p3553
I3605
sVmotioning
p3554
I3606
sVgathering
p3555
I3607
sVheight
p3556
I3608
sVofferings
p3557
I3609
sVlanterns
p3558
I3610
sVloaded
p3559
I3611
sVputt
p3560
I3612
sVputs
p3561
I1635
sVpatrolling
p3562
I3613
sVthree
p3563
I3614
sVtiny
p3564
I3615
sVinterest
p3565
I3616
sVbasin
p3566
I3617
sVlovely
p3567
I3618
sVthrew
p3568
I3619
sVmushroom
p3569
I3620
sVgreyhound
p3570
I3621
sVsunshine
p3571
I3622
sVacrobatics
p3572
I6300
sVtank
p3573
I3624
sVreddish
p3574
I3625
sVsay
p3575
I607
sVlizard
p3576
I1710
sVbalance
p3577
I3628
sVanchor
p3578
I3629
sVseven
p3579
I3630
sVcane
p3580
I3631
sVmetropolitan
p3581
I3632
sVmexico
p3582
I3633
sVis
p3583
I3634
sVsushi
p3584
I3635
sVit
p3585
I3636
sVsequined
p3586
I3637
sVcant
p3587
I3638
sVclinging
p3588
I1755
sVin
p3589
I3640
sVseattle
p3590
I3641
sVmouse
p3591
I3642
sVid
p3592
I1761
sVif
p3593
I3643
sVgrown
p3594
I3644
sVbottles
p3595
I3645
sVmake
p3596
I3646
sVdonning
p3597
I5168
sVbottled
p3598
I3648
sVbelly
p3599
I3649
sVvegetable
p3600
I3650
sVshoveling
p3601
I3651
sVsidelines
p3602
I3652
sVmeets
p3603
I3653
sVbearded
p3604
I3654
sVscarfs
p3605
I3655
sVkit
p3606
I3656
sVrenaissance
p3607
I3657
sVsquat
p3608
I5088
sVopportunity
p3609
I1847
sVkid
p3610
I3659
sVbutter
p3611
I3660
sVromp
p3612
I2039
sVfashionable
p3613
I612
sVsmokes
p3614
I3662
sVpractices
p3615
I1872
sVflops
p3616
I1879
sVleft
p3617
I3664
sVjust
p3618
I3665
sVsporting
p3619
I3666
sVfighters
p3620
I3668
sVhuman
p3621
I3669
sVtattooed
p3622
I3670
sVyet
p3623
I3671
sVsunflower
p3624
I3672
sVcharacter
p3625
I3673
sVpotential
p3626
I3974
sVcontestant
p3627
I3676
sVsave
p3628
I3677
sVlassoing
p3629
I3678
sVtrimming
p3630
I3679
sVglittery
p3631
I6303
sVsailors
p3632
I3680
sVbackground
p3633
I3682
sVforested
p3634
I3683
sVdepicts
p3635
I194
sVshoulder
p3636
I3684
sVnude
p3637
I3685
sVperforming
p3638
I3686
sVmanual
p3639
I3687
sVzombies
p3640
I3688
sVpillar
p3641
I3689
sVdead
p3642
I2049
sVscrimmage
p3643
I3692
sVpoolside
p3644
I3693
sVrepelling
p3645
I3694
sVdense
p3646
I3695
sVcarts
p3647
I3696
sVdaytime
p3648
I3697
sVtrack
p3649
I3982
sVonlooking
p3650
I3699
sVskateboarder
p3651
I3700
sVbackhoe
p3652
I3701
sVsleigh
p3653
I2833
sVfiremen
p3654
I3703
sVkeeper
p3655
I3704
sVsuper
p3656
I2144
sVdunking
p3657
I2156
sVyelling
p3658
I3705
sVribs
p3659
I3706
sVmagazine
p3660
I3707
sVafternoon
p3661
I3708
sVcraftsman
p3662
I3709
sVwhats
p3663
I3711
sVdown
p3664
I2228
sVlies
p3665
I3714
sVcarving
p3666
I3715
sVamsterdam
p3667
I1466
sVfrightened
p3668
I3716
sVcones
p3669
I2836
sVweathered
p3670
I3718
sVflying
p3671
I2264
sVfork
p3672
I3720
sVoffering
p3673
I2303
sVbatman
p3674
I3722
sVsweatsuit
p3675
I3723
sVfireworks
p3676
I3724
sVlanding
p3677
I2314
sVford
p3678
I3725
sVgarments
p3679
I3726
sVdiaper
p3680
I3727
sVfort
p3681
I3728
sVmouthed
p3682
I3729
sVpavilion
p3683
I3730
sVbuilds
p3684
I3731
sVhikers
p3685
I3732
sVattached
p3686
I3733
sVbounds
p3687
I3734
sVstages
p3688
I3735
sVshin
p3689
I3736
sVsticks
p3690
I3737
sVclassic
p3691
I3738
sVtoss
p3692
I3739
sVcovers
p3693
I3740
sVdrive
p3694
I634
sVfashioned
p3695
I3743
sVfloating
p3696
I2390
sVcommuting
p3697
I3745
sVshit
p3698
I3746
sVvista
p3699
I3747
sVleafless
p3700
I3748
sVclings
p3701
I2410
sVhanded
p3702
I3750
sVdigital
p3703
I3751
sVwarehouse
p3704
I3752
sVribbons
p3705
I3753
sVsling
p3706
I3754
sVaxe
p3707
I637
sVdiet
p3708
I3756
sVfell
p3709
I3757
sVpizzas
p3710
I3759
sVhappening
p3711
I3760
sVpotato
p3712
I3761
sVdaily
p3713
I3762
sVjacket
p3714
I3763
sVgorilla
p3715
I2492
sVteeth
p3716
I3764
sVthemed
p3717
I3765
sVskis
p3718
I3766
sVskit
p3719
I2528
sVskin
p3720
I3767
sVmill
p3721
I3769
sVmilk
p3722
I3771
sVanticipation
p3723
I3772
sVtechnique
p3724
I3774
sVfather
p3725
I3775
sVbordered
p3726
I3776
sVmarks
p3727
I3777
sVme
p3728
I3778
sVstring
p3729
I3779
sVjoin
p3730
I5190
sVdim
p3731
I3780
sVdid
p3732
I3781
sVdig
p3733
I3782
sVjenga
p3734
I3783
sVbikers
p3735
I3784
sVitem
p3736
I3785
sVbrownish
p3737
I3786
sVdip
p3738
I3787
sVblur
p3739
I3563
sVshoe
p3740
I3998
sVshave
p3741
I3790
sVolympic
p3742
I3791
sVseasoning
p3743
I3792
sVdealing
p3744
I3793
sVliterature
p3745
I6277
sVrickshaws
p3746
I3009
sVrun
p3747
I2848
sVskiiers
p3748
I3797
sVadds
p3749
I3798
sVinternational
p3750
I3799
sVgazebo
p3751
I3800
sVfilled
p3752
I3802
sVtransportation
p3753
I3804
sVclerk
p3754
I3805
sVmakeup
p3755
I3806
sVfrench
p3756
I3807
sVfrosting
p3757
I3808
sVwait
p3758
I3809
sVbox
p3759
I3810
sVboy
p3760
I3811
sVcanadian
p3761
I2777
sVshift
p3762
I3813
sVbot
p3763
I3814
sVbow
p3764
I3815
sVtrinkets
p3765
I3817
sVboa
p3766
I3818
sVnylon
p3767
I3819
sVmassage
p3768
I2808
sVteenage
p3769
I3820
sVkayak
p3770
I3821
sVflexibility
p3771
I3822
sVeverybody
p3772
I3824
sVtroops
p3773
I3825
sVlockers
p3774
I2857
sVstoops
p3775
I3826
sVdude
p3776
I1565
sVfrance
p3777
I3828
sVolympian
p3778
I3829
sVsomersault
p3779
I3830
sVcheckout
p3780
I3831
sVsharing
p3781
I3832
sS'<S>'
p3782
I1
sVdowntown
p3783
I3833
sVtandem
p3784
I3834
sVolive
p3785
I3835
sVeffort
p3786
I3836
sVblinds
p3787
I3837
sVcapturing
p3788
I3838
sVfly
p3789
I3839
sVwalled
p3790
I2910
sVponchos
p3791
I3562
sVavoiding
p3792
I3840
sVreviews
p3793
I3841
sVsoup
p3794
I3842
sVdrags
p3795
I3843
sVgrowing
p3796
I3844
sVmaking
p3797
I3845
sVarrive
p3798
I3846
sVbites
p3799
I3847
sVcrazy
p3800
I3848
sVplaza
p3801
I6323
sVreflector
p3802
I3850
sVconfused
p3803
I3851
sVsample
p3804
I3852
sVdrawer
p3805
I3853
sVpink
p3806
I3854
sVrays
p3807
I3004
sVnecklaces
p3808
I3855
sVping
p3809
I3857
sVpine
p3810
I3858
sVchemical
p3811
I3859
sVskater
p3812
I3022
sVskates
p3813
I3861
sVtile
p3814
I3862
sVnyc
p3815
I3863
sVpathway
p3816
I3864
sVmap
p3817
I3865
sVstaying
p3818
I3866
sVdesigner
p3819
I3867
sVmat
p3820
I3868
sVstrokes
p3821
I3046
sVfed
p3822
I6446
sVmac
p3823
I3870
sVmad
p3824
I3066
sVtablecloth
p3825
I3872
sVguys
p3826
I3873
sVman
p3827
I3874
sVscrambling
p3828
I3875
sVpins
p3829
I3876
sVneck
p3830
I3877
sVmaybe
p3831
I3878
sVafrican
p3832
I3879
sVbasket
p3833
I3880
sVtall
p3834
I3881
sVgesture
p3835
I3127
sVcute
p3836
I3883
sVdojo
p3837
I3884
sVshield
p3838
I3135
sVentryway
p3839
I3887
sVpointed
p3840
I3888
sVterrace
p3841
I3889
sVcuts
p3842
I2755
sVmarshmallows
p3843
I3168
sVsolder
p3844
I3891
sVgroup
p3845
I3181
sVmonitor
p3846
I3893
sVinteresting
p3847
I3894
sVmaid
p3848
I3895
sVmail
p3849
I3896
sVmain
p3850
I3897
sVtexas
p3851
I3209
sVtucked
p3852
I3899
sVviews
p3853
I3900
sVboats
p3854
I1762
sVtouching
p3855
I3902
sVmarkings
p3856
I3903
sVarrows
p3857
I3904
sVrock
p3858
I3905
sVelephants
p3859
I3906
sVsignage
p3860
I3907
sVgirl
p3861
I3908
sVspiking
p3862
I3909
sVcanada
p3863
I3910
sVemerges
p3864
I3328
sVstitch
p3865
I3335
sV3rd
p3866
I3912
sVpizzeria
p3867
I3914
sVmonster
p3868
I3915
sVsideways
p3869
I3916
sVpumping
p3870
I3917
sVcalifornia
p3871
I3918
sVheadband
p3872
I3919
sVunderwear
p3873
I3920
sVcarnival
p3874
I3921
sVwaiter
p3875
I3922
sVheadphones
p3876
I3923
sVthing
p3877
I3924
sVfunky
p3878
I3925
sVjumping
p3879
I5215
sVblacksmith
p3880
I3927
sVthink
p3881
I3928
sVwaited
p3882
I3929
sVfirst
p3883
I3930
sVexotic
p3884
I3931
sVcheese
p3885
I3932
sVlone
p3886
I6337
sVcrib
p3887
I3934
sVamericans
p3888
I3935
sVfast
p3889
I3936
sVsuspended
p3890
I3937
sVcarry
p3891
I3938
sVlittle
p3892
I3939
sVmurky
p3893
I3940
sVparticipates
p3894
I3941
sVspeaking
p3895
I3942
sVeyes
p3896
I3943
sVstreaked
p3897
I3944
sVcrevice
p3898
I3945
sVeyed
p3899
I3946
sVbutt
p3900
I3947
sVseat
p3901
I3948
sV11
p3902
I3949
sV10
p3903
I3561
sV13
p3904
I3951
sV12
p3905
I3952
sV15
p3906
I3953
sV14
p3907
I3954
sVsailing
p3908
I3955
sV16
p3909
I3956
sVscraping
p3910
I3957
sVvictorian
p3911
I3958
sVprotected
p3912
I3959
sVknives
p3913
I3960
sVwere
p3914
I3961
sVgigantic
p3915
I3962
sVstrolls
p3916
I3963
sVtractor
p3917
I3964
sVcoconut
p3918
I832
sVcamouflaged
p3919
I3966
sVwinding
p3920
I3967
sVpastry
p3921
I3968
sVoccupied
p3922
I3969
sVspeakers
p3923
I3970
sVhooded
p3924
I3971
sVshocked
p3925
I3973
sVsquad
p3926
I3675
sVinterior
p3927
I3975
sVperformance
p3928
I3976
sVjungle
p3929
I5222
sVskinned
p3930
I3978
sVpain
p3931
I3979
sVpail
p3932
I3980
sVnormal
p3933
I3981
sVarguing
p3934
I3698
sVsheets
p3935
I3983
sVpair
p3936
I3984
sVtugging
p3937
I3985
sVbeachfront
p3938
I3986
sVespecially
p3939
I3987
sVfills
p3940
I3988
sVgyro
p3941
I3989
sVnapkin
p3942
I3990
sVspectate
p3943
I3991
sVgracefully
p3944
I3992
sVstockings
p3945
I3993
sVshop
p3946
I3994
sVshot
p3947
I3995
sVshow
p3948
I3996
sVdrawings
p3949
I3789
sVcorner
p3950
I3999
sVgoers
p3951
I6017
sVcurled
p3952
I4001
sVenthusiast
p3953
I4002
sVbehind
p3954
I4025
sVblack
p3955
I4003
sVwalgreens
p3956
I3362
sVget
p3957
I4004
sVmidriff
p3958
I4005
sVspraying
p3959
I4006
sVnearly
p3960
I4007
sVenjoys
p3961
I674
sVreading
p3962
I4028
sVfrolicking
p3963
I4010
sVkeyboards
p3964
I4011
sVmedian
p3965
I4012
sVmorning
p3966
I4013
sVexecutes
p3967
I5227
sVfinishing
p3968
I4015
sVmilling
p3969
I4016
sVballroom
p3970
I6526
sVblurred
p3971
I4017
sVcocktails
p3972
I3950
sVseal
p3973
I4018
sVwonder
p3974
I4019
sVpuma
p3975
I4020
sVcamping
p3976
I4021
sVornament
p3977
I4023
sVlabel
p3978
I4024
sVenough
p3979
I4178
sVchews
p3980
I4026
sVgeometric
p3981
I4027
sVlassos
p3982
I4009
sVchecks
p3983
I4029
sVoversized
p3984
I4030
sVparent
p3985
I4031
sVslingshot
p3986
I4032
sVsingers
p3987
I4033
sVtub
p3988
I4034
sVtug
p3989
I4035
sVsunbathes
p3990
I4036
sVrugby
p3991
I4037
sVrestroom
p3992
I4038
sVtour
p3993
I4039
sVpatrons
p3994
I4040
sVspare
p3995
I4041
sVamong
p3996
I4042
sVstretches
p3997
I4043
sVstretcher
p3998
I4044
sVcancer
p3999
I4045
sVstretched
p4000
I4046
sVpacifier
p4001
I4047
sVarts
p4002
I4048
sVcaricature
p4003
I4049
sVtuning
p4004
I4050
sVundershirt
p4005
I4051
sVmark
p4006
I4052
sVmart
p4007
I1402
sVworkshop
p4008
I4054
sVshopping
p4009
I4055
sVgraveyard
p4010
I4056
sVlaptops
p4011
I4057
sVdramatic
p4012
I4058
sVwake
p4013
I4059
sVbmw
p4014
I4226
sVbmx
p4015
I4060
sVthose
p4016
I4061
sVsound
p4017
I4062
sVstacked
p4018
I4063
sVcoca
p4019
I4064
sVinvestigating
p4020
I4065
sVrubbing
p4021
I4066
sVcoffee
p4022
I4067
sVsleeping
p4023
I4068
sVmiddle
p4024
I4069
sVpressing
p4025
I4070
sVhijab
p4026
I4071
sVmovements
p4027
I4072
sVbags
p4028
I4073
sVdifferent
p4029
I4074
sVdoctor
p4030
I4075
sVpay
p4031
I4076
sVwoodland
p4032
I4077
sVmulticolor
p4033
I4078
sVsame
p4034
I4079
sVspeech
p4035
I4080
sVgreyhounds
p4036
I4081
sVstruggling
p4037
I4082
sVpan
p4038
I4084
sVoil
p4039
I4387
sVassist
p4040
I4086
sVseagulls
p4041
I4087
sVcompanion
p4042
I4088
sVrunning
p4043
I4089
sVstairwell
p4044
I4090
sVclimbing
p4045
I4092
sVweave
p4046
I4093
sVlayup
p4047
I4094
sVdrain
p4048
I4095
sVroughly
p4049
I4096
sVbicyclists
p4050
I4097
sVbottle
p4051
I4098
sVamazed
p4052
I1407
sVgates
p4053
I4100
sVoutdoor
p4054
I4101
sVmoney
p4055
I4102
sVadjustments
p4056
I4103
sVwoodworking
p4057
I4104
sVgated
p4058
I4105
sVgrouped
p4059
I6364
sVbeagle
p4060
I4106
sVshingles
p4061
I4107
sVpile
p4062
I4108
sV4
I4109
sVgrating
p4063
I4110
sVelaborately
p4064
I948
sVgrip
p4065
I4111
sVdocks
p4066
I4113
sVmop
p4067
I4114
sVmow
p4068
I4115
sVchainsaw
p4069
I4116
sVgrid
p4070
I4117
sVmom
p4071
I4118
sVmob
p4072
I4119
sVrailroad
p4073
I4120
sVaiming
p4074
I4121
sVblankets
p4075
I4122
sVgrim
p4076
I4123
sVgrin
p4077
I4124
sVvertically
p4078
I4125
sVvending
p4079
I4126
sVidentifying
p4080
I4127
sVserves
p4081
I4128
sVserver
p4082
I4129
sVfacing
p4083
I4130
sVaudience
p4084
I4131
sVlaughing
p4085
I4626
sVdrainage
p4086
I4133
sVserved
p4087
I4134
sVnice
p4088
I6367
sVescalators
p4089
I4135
sVsneaker
p4090
I4136
sVdoll
p4091
I4137
sVascend
p4092
I4138
sVdunes
p4093
I1949
sVimages
p4094
I4139
sVpasture
p4095
I4667
sVorganizing
p4096
I4141
sVmatching
p4097
I4142
sVcolonial
p4098
I110
sVexpressing
p4099
I4145
sVpipes
p4100
I4146
sVknife
p4101
I4147
sVmeasuring
p4102
I4148
sVairways
p4103
I4717
sVeach
p4104
I5246
sVunusual
p4105
I4151
sVbroken
p4106
I4152
sVdrums
p4107
I4153
sVroaming
p4108
I4154
sVconducting
p4109
I4755
sVisland
p4110
I4156
sVviolence
p4111
I4770
sVmixer
p4112
I4158
sVmixes
p4113
I4159
sVairline
p4114
I4160
sVpockets
p4115
I4161
sVmixed
p4116
I4162
sVroad
p4117
I4163
sVquietly
p4118
I4164
sVlands
p4119
I4165
sVwhites
p4120
I4166
sVspreading
p4121
I4167
sVskilled
p4122
I4168
sVharness
p4123
I4169
sVstrip
p4124
I4170
sVskillet
p4125
I4171
sVattaching
p4126
I4053
sVshells
p4127
I4172
sVdowned
p4128
I4173
sVtrapeze
p4129
I4174
sVdistracted
p4130
I493
sVearphones
p4131
I4175
sVpretends
p4132
I4176
sVwashers
p4133
I4177
sVbuggy
p4134
I4179
sVstrikes
p4135
I4180
sVwiping
p4136
I4181
sVbookstore
p4137
I4182
sVwalkway
p4138
I4183
sVarranged
p4139
I4184
sVromantic
p4140
I4185
sVdrills
p4141
I4186
sVstrawberry
p4142
I4187
sVpeeking
p4143
I4188
sVnetting
p4144
I4189
sVsuitcase
p4145
I4190
sVaffection
p4146
I4191
sVrapids
p4147
I4192
sVdeer
p4148
I4193
sVdeep
p4149
I4194
sVfellow
p4150
I4980
sVexamine
p4151
I4195
sVfile
p4152
I4196
sVgirlfriend
p4153
I4197
sVhound
p4154
I4198
sVcables
p4155
I4199
sVfilm
p4156
I4200
sVfill
p4157
I4201
sVagain
p4158
I4202
sVpensive
p4159
I4203
sVpersonnel
p4160
I4205
sVfloored
p4161
I4206
sVfield
p4162
I4207
sVastronaut
p4163
I4208
sVrollerblading
p4164
I4209
sVoutfield
p4165
I4210
sVcomplected
p4166
I4211
sVstudents
p4167
I5040
sVdecorates
p4168
I4213
sVimportant
p4169
I4214
sVtackle
p4170
I4215
sVdecorated
p4171
I4216
sVawkwardly
p4172
I4217
sVremote
p4173
I4218
sVunload
p4174
I5086
sVcasts
p4175
I4220
sVsewer
p4176
I4221
sVu
I4222
sVresembles
p4177
I4223
sVhusky
p4178
I4224
sVstarting
p4179
I4225
sVgrowling
p4180
I4227
sVsuns
p4181
I4229
sVsuburban
p4182
I4230
sVdollar
p4183
I4231
sVslung
p4184
I4232
sVtalks
p4185
I4233
sVfixtures
p4186
I4234
sVchildren
p4187
I4235
sVenjoying
p4188
I4236
sVbonnets
p4189
I6391
sVreturning
p4190
I5203
sVpuffy
p4191
I4238
sVscout
p4192
I4239
sVfall
p4193
I4240
sVsurfboarder
p4194
I4242
sVwasher
p4195
I5261
sVsquirted
p4196
I4244
sVwashing
p4197
I4245
sVmothers
p4198
I4246
sVearbuds
p4199
I4247
sVneighborhood
p4200
I4249
sVportable
p4201
I4250
sVgrabs
p4202
I4252
sVknitted
p4203
I4253
sVburger
p4204
I4254
sVperspective
p4205
I4256
sVfurther
p4206
I4257
sVribbon
p4207
I4258
sVcigars
p4208
I4259
sVswampy
p4209
I4260
sVstood
p4210
I4261
sVwrecked
p4211
I4262
sVstool
p4212
I4263
sVstoop
p4213
I4264
sVpublic
p4214
I4265
sVmovement
p4215
I4266
sVtattoos
p4216
I4267
sVbowtie
p4217
I4268
sVmule
p4218
I4269
sVpuddles
p4219
I4270
sVranger
p4220
I4271
sVoperating
p4221
I4272
sVrollerbladers
p4222
I4273
sVsearch
p4223
I4274
sVstretching
p4224
I4275
sVstorefront
p4225
I4276
sVairport
p4226
I4277
sVchipper
p4227
I4278
sVnarrow
p4228
I4279
sVsplashes
p4229
I5269
sVkimonos
p4230
I2548
sVbuses
p4231
I4281
sVcaravan
p4232
I4282
sVtransit
p4233
I5444
sVafrica
p4234
I4284
sVsuits
p4235
I4286
sVarmed
p4236
I4287
sVdachshund
p4237
I4288
sVeye
p4238
I4289
sVculinary
p4239
I2905
sVdestination
p4240
I4291
sVtexting
p4241
I4292
sVtwo
p4242
I4293
sVsplash
p4243
I4296
sVraft
p4244
I4297
sVdunks
p4245
I4298
sVmegaphone
p4246
I4299
sVwipes
p4247
I4300
sVdiamond
p4248
I4301
sV&amp
p4249
I4302
sVcanon
p4250
I2143
sVlanded
p4251
I4304
sVcontrolling
p4252
I4305
sVlemons
p4253
I4306
sVparticular
p4254
I4307
sVkaraoke
p4255
I4309
sVtown
p4256
I4310
sVhour
p4257
I4311
sVcluster
p4258
I4312
sVsucks
p4259
I4314
sVguards
p4260
I4315
sVescorted
p4261
I4317
sVspecialized
p4262
I4318
sVmarble
p4263
I4319
sVladys
p4264
I4320
sVpurchases
p4265
I4321
sVshark
p4266
I4322
sVhamburger
p4267
I4323
sVsynchronized
p4268
I4324
sVstacking
p4269
I4325
sVshare
p4270
I4326
sVrainstorm
p4271
I4327
sVnumbers
p4272
I4328
sVsharp
p4273
I4329
sVtriathlon
p4274
I1334
sVawkward
p4275
I4332
sVacts
p4276
I4333
sVmaps
p4277
I4334
sVstir
p4278
I4335
sVensemble
p4279
I4336
sVfrilly
p4280
I4337
sVflorescent
p4281
I4338
sVblood
p4282
I4339
sVcoming
p4283
I4340
sVbloom
p4284
I4341
sVchute
p4285
I4342
sVcrowded
p4286
I4343
sVcoat
p4287
I4344
sVpaw
p4288
I4345
sVeats
p4289
I4346
sVbathed
p4290
I4347
sVdragon
p4291
I4348
sVdeserted
p4292
I4349
sVcoal
p4293
I4350
sVplaying
p4294
I4352
sVinfant
p4295
I4353
sVrifles
p4296
I4354
sVmuzzled
p4297
I4355
sVskips
p4298
I2757
sVindustrial
p4299
I4356
sVdough
p4300
I4357
sVgolfing
p4301
I4358
sV24
p4302
I4359
sV25
p4303
I4360
sV20
p4304
I4361
sV21
p4305
I4362
sVpossessions
p4306
I5782
sVhandheld
p4307
I4364
sVlate
p4308
I4365
sVdolly
p4309
I4366
sVpad
p4310
I4367
sVcrawls
p4311
I4368
sVdolls
p4312
I4369
sVgood
p4313
I4370
sVmales
p4314
I4371
sVwalls
p4315
I4372
sVcompound
p4316
I4373
sVoxford
p4317
I4374
sVviewers
p4318
I6740
sVhuddle
p4319
I4376
sVpregnant
p4320
I4377
sVgoofy
p4321
I4379
sVgender
p4322
I4380
sVeveryone
p4323
I4381
sVdelicious
p4324
I6271
sVhouse
p4325
I4382
sVfish
p4326
I4383
sVhard
p4327
I4384
sVberet
p4328
I4385
sVengaging
p4329
I4386
sVextended
p4330
I4085
sVfist
p4331
I4388
sVbackpacks
p4332
I4389
sVcomic
p4333
I4390
sVharp
p4334
I4391
sVflower
p4335
I4392
sVpigeon
p4336
I4393
sVprojected
p4337
I4394
sVacting
p4338
I4395
sVprint
p4339
I4396
sVforeground
p4340
I4397
sVcrouched
p4341
I4398
sVbulls
p4342
I4399
sVpleasant
p4343
I4400
sVcrouches
p4344
I4401
sVmembers
p4345
I4402
sVbacked
p4346
I4403
sVmma
p4347
I4404
sVfaucet
p4348
I4405
sVinnertubes
p4349
I4406
sVcomputers
p4350
I4407
sVedges
p4351
I4408
sVdribbles
p4352
I4409
sVcopper
p4353
I4410
sVembraces
p4354
I4411
sVdont
p4355
I4412
sVnetted
p4356
I4413
sVjogs
p4357
I4414
sVdone
p4358
I4416
sVapproximately
p4359
I4417
sVcampground
p4360
I4418
sVcups
p4361
I4419
sVrazor
p4362
I4420
sVtwenty
p4363
I4421
sVjetty
p4364
I4422
sVleast
p4365
I4423
sVpaint
p4366
I4424
sVleash
p4367
I4425
sVcompartment
p4368
I4426
sVlease
p4369
I4427
sVmuscles
p4370
I4428
sVpara
p4371
I4429
sVneedle
p4372
I4430
sVpark
p4373
I4431
sVdraped
p4374
I4432
sVdentist
p4375
I4433
sVpart
p4376
I4434
sVdoctors
p4377
I4435
sVstirs
p4378
I4436
sVb
I4437
sVcapris
p4379
I5861
sVgotten
p4380
I4439
sVrecording
p4381
I4441
sVtricycles
p4382
I4442
sVpolishing
p4383
I4443
sVurban
p4384
I5291
sVages
p4385
I4445
sVwindbreaker
p4386
I4446
sVaged
p4387
I4447
sVorders
p4388
I4448
sVbackseat
p4389
I4449
sVmountain
p4390
I4450
sVcardigan
p4391
I4451
sVbuilt
p4392
I4452
sVdancing
p4393
I4453
sVcouch
p4394
I4454
sVlifts
p4395
I4455
sVbuild
p4396
I4456
sVrafters
p4397
I4457
sVfolders
p4398
I4458
sVserene
p4399
I4459
sVsweatshirts
p4400
I4460
sVeggs
p4401
I4461
sVflute
p4402
I4462
sVsalmon
p4403
I4463
sVchart
p4404
I4464
sVmost
p4405
I4465
sVmoss
p4406
I4466
sVsunhat
p4407
I4467
sVextremely
p4408
I4468
sVrefrigerator
p4409
I4469
sVchested
p4410
I4470
sVdrifts
p4411
I4471
sVcramped
p4412
I4472
sVcameramen
p4413
I4099
sVjoining
p4414
I6381
sVthomas
p4415
I4474
sVscattered
p4416
I4475
sVhugging
p4417
I4476
sVperches
p4418
I6405
sVhillside
p4419
I4477
sVviolinists
p4420
I4478
sVbusinesses
p4421
I4479
sVrepels
p4422
I6412
sVcarefully
p4423
I4480
sVfine
p4424
I4481
sVfind
p4425
I4482
sVgiant
p4426
I4483
sVnervous
p4427
I5303
sVunhappy
p4428
I4484
sV8
I4485
sVboulder
p4429
I4486
sVexpress
p4430
I4487
sVtoddlers
p4431
I4488
sVferret
p4432
I4489
sVbatter
p4433
I4490
sVbreast
p4434
I4491
sVsilk
p4435
I4492
sVmerchandise
p4436
I4493
sVspikes
p4437
I4494
sVmotorcycles
p4438
I4495
sVtracksuit
p4439
I4496
sVremove
p4440
I4497
sVspiked
p4441
I4499
sVcommon
p4442
I4500
sVrestaurants
p4443
I4501
sVscruffy
p4444
I4502
sVexcavation
p4445
I4503
sVvine
p4446
I4505
sVlion
p4447
I4506
sVindividual
p4448
I4507
sVseated
p4449
I1860
sVrepairs
p4450
I4509
sVvisiting
p4451
I4510
sVfans
p4452
I4511
sVcutout
p4453
I4512
sVchampagne
p4454
I4513
sVhistorical
p4455
I4514
sVmailbox
p4456
I4515
sVpagoda
p4457
I4516
sVaircraft
p4458
I4517
sVpepsi
p4459
I4518
sVfloats
p4460
I4519
sVfolding
p4461
I4520
sVrestaurant
p4462
I4521
sVarchway
p4463
I4522
sVannual
p4464
I4523
sVforeign
p4465
I4524
sVsparring
p4466
I4525
sVbongo
p4467
I4526
sVpoint
p4468
I3425
sVsimple
p4469
I4528
sVnewborn
p4470
I4529
sVgypsy
p4471
I4530
sVdances
p4472
I4531
sVdancer
p4473
I4532
sVthroughout
p4474
I6698
sVexpensive
p4475
I4533
sVpatiently
p4476
I4534
sVweaving
p4477
I4535
sVraise
p4478
I4536
sVcreate
p4479
I4537
sVdropping
p4480
I4538
sVportraits
p4481
I4539
sVpeppers
p4482
I4540
sVmeeting
p4483
I4541
sVslips
p4484
I4542
sVvans
p4485
I4543
sVgay
p4486
I4544
sVassorted
p4487
I4545
sVgas
p4488
I4546
sVgap
p4489
I4547
sVfur
p4490
I4548
sVgrains
p4491
I4549
sVtalking
p4492
I5310
sVsolid
p4493
I4551
sVbill
p4494
I4552
sVhorseshoe
p4495
I4553
sVtiered
p4496
I4554
sVfun
p4497
I4555
sVvaults
p4498
I4556
sVlarger
p4499
I6738
sVdecoration
p4500
I4557
sVitself
p4501
I4558
sVfacade
p4502
I4559
sVitaly
p4503
I4560
sVbutcher
p4504
I4561
sVtextile
p4505
I4562
sVcorridor
p4506
I4563
sVwindmill
p4507
I4564
sVstrips
p4508
I4565
sVkeys
p4509
I4566
sVassignment
p4510
I3067
sVleopard
p4511
I4567
sVdesks
p4512
I4568
sVmoment
p4513
I4570
sVstripe
p4514
I4571
sVwheelchairs
p4515
I4572
sVsandals
p4516
I4573
sVcelebratory
p4517
I4574
sVlacrosse
p4518
I4575
sVdark
p4519
I745
sVbeanie
p4520
I4577
sVtugs
p4521
I160
sVflags
p4522
I4579
sVlandmark
p4523
I4580
sVentry
p4524
I4581
sVchemistry
p4525
I4582
sVspend
p4526
I4583
sVeyeglasses
p4527
I4585
sVbodysuits
p4528
I225
sVbackflip
p4529
I4586
sVshape
p4530
I4587
sVjumpsuit
p4531
I4588
sVletting
p4532
I4589
sVcut
p4533
I4590
sVcup
p4534
I4591
sVshouting
p4535
I265
sVcue
p4536
I4593
sVkites
p4537
I4594
sVsnap
p4538
I277
sVbridal
p4539
I4595
sVeaster
p4540
I4596
sVexcited
p4541
I4597
sVunloading
p4542
I4598
sVbin
p4543
I4599
sVbig
p4544
I4601
sVrebound
p4545
I4602
sVbib
p4546
I4603
sVbit
p4547
I4604
sVcompetitively
p4548
I4605
sVknock
p4549
I4607
sVsemi
p4550
I4608
sVfollows
p4551
I4610
sVglove
p4552
I4611
sVbamboo
p4553
I4612
sVgardening
p4554
I4613
sVhumorous
p4555
I4614
sV30s
p4556
I3177
sVback
p4557
I4616
sVmartial
p4558
I4617
sVornaments
p4559
I4618
sVmirror
p4560
I4619
sVcandle
p4561
I4620
sVscale
p4562
I4621
sVjewelry
p4563
I4622
sVpet
p4564
I4623
sVpep
p4565
I4624
sVpen
p4566
I4625
sVsneakers
p4567
I424
sVeither
p4568
I4132
sVcameraman
p4569
I4627
sVpatient
p4570
I4628
sVufc
p4571
I4629
sVcostumes
p4572
I4630
sVlounges
p4573
I4631
sVlottery
p4574
I6447
sVcostumed
p4575
I4633
sVmoored
p4576
I4635
sVgoods
p4577
I4636
sVpiles
p4578
I4637
sVgraduation
p4579
I4639
sVpiled
p4580
I4640
sVbeans
p4581
I4641
sVframed
p4582
I4642
sVfrog
p4583
I6451
sVframes
p4584
I4645
sVlesson
p4585
I4646
sVdownhill
p4586
I4647
sVjockey
p4587
I4648
sVpreservers
p4588
I4649
sVhomemade
p4589
I4650
sVforward
p4590
I4651
sVbored
p4591
I4652
sVopponent
p4592
I4653
sVadjusting
p4593
I4654
sVimmigration
p4594
I4655
sVboys
p4595
I4656
sVunwrapping
p4596
I4657
sVhopes
p4597
I4658
sVdirected
p4598
I4659
sVplanes
p4599
I4660
sVsort
p4600
I6453
sVgeese
p4601
I4661
sVmopeds
p4602
I4662
sVsingle
p4603
I4663
sVcure
p4604
I4664
sVcurb
p4605
I4665
sVnecks
p4606
I4666
sVcabs
p4607
I4140
sVcafe
p4608
I722
sV%
I4669
sVbrushing
p4609
I4670
sVexplaining
p4610
I4671
sVlatex
p4611
I5731
sVfiretruck
p4612
I4672
sVprepared
p4613
I4673
sVlens
p4614
I4674
sVfishes
p4615
I788
sVdepicting
p4616
I4676
sVdesert
p4617
I4677
sVoverlooking
p4618
I4678
sVvehicles
p4619
I4679
sVamused
p4620
I831
sVcooked
p4621
I4681
sVroping
p4622
I4682
sVpresenting
p4623
I840
sVdrenched
p4624
I4143
sV2008
p4625
I4683
sVstroller
p4626
I4684
sVamplifier
p4627
I4685
sVgroceries
p4628
I4686
sVsnowmobile
p4629
I883
sVintricate
p4630
I4687
sVgolfer
p4631
I4688
sVvietnamese
p4632
I902
sVpeanut
p4633
I4689
sVmower
p4634
I4690
sVsaxaphone
p4635
I4691
sVchaps
p4636
I4692
sVhelps
p4637
I4693
sVfrisbees
p4638
I4694
sVbrooms
p4639
I4695
sVgravel
p4640
I4696
sVrandom
p4641
I5335
sVdessert
p4642
I4698
sVhuddled
p4643
I4699
sVputting
p4644
I4700
sVhuddles
p4645
I4701
sVsurgeon
p4646
I4702
sVlegos
p4647
I4703
sVentire
p4648
I4704
sVknight
p4649
I4705
sVrearing
p4650
I4706
sVwindsurfer
p4651
I869
sVsquarepants
p4652
I4708
sVchoppy
p4653
I4709
sVbleeding
p4654
I4710
sVcrow
p4655
I4711
sVcrop
p4656
I1028
sVchicago
p4657
I4714
sVgiving
p4658
I4715
sVassisted
p4659
I4716
sVraincoat
p4660
I4149
sVpaddle
p4661
I4719
sVaccess
p4662
I4720
sVclipboard
p4663
I4721
sVkayaker
p4664
I4722
sVexercise
p4665
I4723
sV3d
p4666
I4724
sVbody
p4667
I1088
sVexchange
p4668
I4725
sVbaring
p4669
I4726
sVpacking
p4670
I4727
sVobjects
p4671
I4728
sVsink
p4672
I4729
sVothers
p4673
I4730
sVsing
p4674
I4731
sVjockeys
p4675
I5994
sVextreme
p4676
I4732
sVtalent
p4677
I4733
sVstalks
p4678
I4734
sV33
p4679
I4735
sV30
p4680
I4736
sValaska
p4681
I4737
sVclimb
p4682
I4738
sVhonor
p4683
I2821
sVcomposed
p4684
I4739
sVnamed
p4685
I4740
sVbaskets
p4686
I4742
sVnames
p4687
I4743
sVlimb
p4688
I4744
sVtap
p4689
I6466
sVlime
p4690
I4746
sVtar
p4691
I6640
sVchi
p4692
I4749
sVconversing
p4693
I2437
sVthemselves
p4694
I4750
sVcharcoal
p4695
I4751
sVexcitedly
p4696
I5340
sVupcoming
p4697
I4753
sVkiosk
p4698
I4754
sVcrafting
p4699
I4155
sVtrail
p4700
I4757
sVtrain
p4701
I4758
sVprizes
p4702
I4759
sVtattered
p4703
I4760
sVarranging
p4704
I4761
sVtearing
p4705
I4762
sVharvest
p4706
I4763
sVtunnel
p4707
I4764
sVtag
p4708
I4766
sVclosing
p4709
I4767
sVfetch
p4710
I4768
sVunpacking
p4711
I4769
sVfringe
p4712
I4157
sVsnacks
p4713
I4771
sVsanding
p4714
I4772
sVbones
p4715
I4773
sVnative
p4716
I4774
sVlamb
p4717
I4775
sVdaring
p4718
I1393
sVholds
p4719
I4777
sVgrimaces
p4720
I4778
sVformations
p4721
I4779
sVlamp
p4722
I4780
sVforest
p4723
I4781
sVstock
p4724
I4782
sVwatery
p4725
I4783
sVbuildings
p4726
I4784
sVde
p4727
I4785
sVwaters
p4728
I4786
sVcollection
p4729
I4787
sVtattoo
p4730
I1572
sVsip
p4731
I6471
sVbluff
p4732
I4789
sVterrier
p4733
I4790
sVcuddling
p4734
I4791
sVchasing
p4735
I4792
sVlines
p4736
I4793
sVliner
p4737
I4794
sVchief
p4738
I4795
sVminivan
p4739
I4796
sVlined
p4740
I4797
sVmustache
p4741
I4798
sVwedding
p4742
I5349
sVmeter
p4743
I4800
sVsymbols
p4744
I4801
sVhugged
p4745
I4802
sVhorns
p4746
I4803
sVbunch
p4747
I4805
sVbridges
p4748
I4806
sVtwirls
p4749
I4807
sVmarshmallow
p4750
I4808
sVla
p4751
I4809
sVll
p4752
I4810
sVwinning
p4753
I4241
sVsquatting
p4754
I4812
sVmarsh
p4755
I1556
sVdad
p4756
I4813
sVspell
p4757
I4814
sVcutting
p4758
I4815
sVday
p4759
I4816
sVpreschool
p4760
I4817
sVstraddling
p4761
I4818
sVstunts
p4762
I4819
sVblindfolded
p4763
I4820
sVthrill
p4764
I4821
sVlingerie
p4765
I4822
sVtubing
p4766
I4823
sVgazing
p4767
I4824
sVhomeless
p4768
I4825
sVslumped
p4769
I4827
sVsweatshirt
p4770
I4828
sVsalesman
p4771
I4829
sVpopping
p4772
I4830
sVmats
p4773
I4831
sVkids
p4774
I46
sVhedges
p4775
I1681
sVdefend
p4776
I4832
sVmate
p4777
I4833
sVoriental
p4778
I4834
sVlecture
p4779
I4835
sVelectronics
p4780
I4836
sVref
p4781
I1699
sVwindsurfing
p4782
I4837
sVred
p4783
I4838
sVapproached
p4784
I4839
sVfourteen
p4785
I4840
sVapproaches
p4786
I4841
sVhazard
p4787
I5010
sVretrieves
p4788
I4843
sVretriever
p4789
I4844
sVbackwards
p4790
I4845
sVyard
p4791
I4846
sVmortar
p4792
I4847
sVskateboard
p4793
I4848
sVyarn
p4794
I4849
sVbarriers
p4795
I4851
sVhollister
p4796
I1771
sVretail
p4797
I4852
sVsouth
p4798
I1779
sVsack
p4799
I4854
sVmicroscopes
p4800
I4855
sVpuppet
p4801
I4856
sVlounging
p4802
I4857
sVbraces
p4803
I4858
sVancient
p4804
I4859
sVmonkey
p4805
I4860
sVlaps
p4806
I4861
sVpots
p4807
I4862
sVchases
p4808
I1857
sVcabin
p4809
I4863
sVgear
p4810
I4864
sVbulldog
p4811
I4865
sVcompleted
p4812
I4866
sVxylophone
p4813
I4867
sVfoamy
p4814
I4868
sVcompletes
p4815
I4869
sVipad
p4816
I4870
sVbabys
p4817
I4871
sVsculptures
p4818
I6485
sVshampoo
p4819
I4873
sVchats
p4820
I4874
sVcomfortable
p4821
I4875
sVtide
p4822
I4876
sVcomfortably
p4823
I4877
sVhave
p4824
I4878
sVthroat
p4825
I4879
sVcurved
p4826
I4880
sVdemonstration
p4827
I4881
sVsidecar
p4828
I4882
sVmic
p4829
I4883
sVbilliards
p4830
I4884
sVmid
p4831
I4885
sVparks
p4832
I1986
sVmix
p4833
I4886
sVparka
p4834
I4887
sVscrubs
p4835
I6488
sVeight
p4836
I4889
sVtripod
p4837
I4890
sVprisoner
p4838
I1996
sVquilted
p4839
I4892
sVenthusiastic
p4840
I4893
sVgather
p4841
I4894
sVoccasion
p4842
I4895
sVskinny
p4843
I4896
sVplanks
p4844
I4897
sVselection
p4845
I4898
sVkite
p4846
I4899
sVtext
p4847
I4900
sVsupported
p4848
I4901
sVrotating
p4849
I4902
sVportfolio
p4850
I4904
sVstaff
p4851
I4906
sVcoloring
p4852
I4907
sVsparks
p4853
I4908
sVcontrols
p4854
I4909
sVphotographs
p4855
I4910
sVbeat
p4856
I4911
sVphotography
p4857
I4912
sVcellist
p4858
I4913
sVcoworker
p4859
I4914
sVstripes
p4860
I4915
sVbear
p4861
I4916
sVbeam
p4862
I4917
sVbean
p4863
I4918
sVbeak
p4864
I4919
sVbead
p4865
I4920
sVstriped
p4866
I4921
sVareas
p4867
I4922
sVcrabs
p4868
I4923
sVorgan
p4869
I4924
sVashtray
p4870
I4925
sVfixes
p4871
I4927
sVkilts
p4872
I4928
sVcalling
p4873
I2707
sVmascara
p4874
I4930
sVmercedes
p4875
I4931
sVcycles
p4876
I5187
sVconstructing
p4877
I4933
sVturkeys
p4878
I4934
sVpuddle
p4879
I4935
sVoutfielder
p4880
I4936
sVracket
p4881
I4938
sVtuxedos
p4882
I4939
sVawaits
p4883
I4940
sVattempting
p4884
I4942
sVpattern
p4885
I4943
sVpurses
p4886
I4944
sVhammock
p4887
I2330
sVroutine
p4888
I4945
sVprogress
p4889
I4946
sVboundary
p4890
I2337
sVunderwater
p4891
I4947
sVdeliver
p4892
I4948
sVtoting
p4893
I4949
sVboss
p4894
I5374
sVjoke
p4895
I4950
sVtaking
p4896
I4951
sVboulders
p4897
I4952
sVpassing
p4898
I4953
sVaquarium
p4899
I4954
sVstatues
p4900
I4955
sVdenim
p4901
I4958
sVbicyclers
p4902
I4959
sVlaugh
p4903
I4961
sVbespectacled
p4904
I4962
sVpouring
p4905
I4963
sVswimmer
p4906
I4964
sVmuddy
p4907
I4965
sVcopies
p4908
I4966
sVgaze
p4909
I4967
sVattends
p4910
I4968
sVcurtain
p4911
I4969
sVjuggles
p4912
I4970
sVjuggler
p4913
I2487
sVfinishes
p4914
I4971
sVreceived
p4915
I4972
sVairplanes
p4916
I4973
sVridden
p4917
I4974
sVorange
p4918
I6502
sVfinished
p4919
I4976
sVsausages
p4920
I4977
sVangles
p4921
I4978
sVbull
p4922
I4979
sVvolunteer
p4923
I4981
sVhomes
p4924
I4982
sVmulti
p4925
I4983
sVplaid
p4926
I4984
sVsplits
p4927
I4985
sVplain
p4928
I4986
sVrectangular
p4929
I4987
sVcarved
p4930
I4989
sValmost
p4931
I4990
sVwalks
p4932
I828
sVhelped
p4933
I4991
sVax
p4934
I4992
sVpartner
p4935
I4993
sVarabic
p4936
I4994
sVpedestal
p4937
I5763
sVgrinder
p4938
I4995
sV)
I4996
sVtumbling
p4939
I4997
sVinjured
p4940
I4998
sVpractice
p4941
I6508
sVsauna
p4942
I5000
sVbinoculars
p4943
I5001
sVsisters
p4944
I5002
sVnumbered
p4945
I5005
sVcenter
p4946
I5006
sVweapon
p4947
I2683
sVthought
p4948
I5007
sVsnorkel
p4949
I5008
sVsets
p4950
I5009
sVravine
p4951
I5011
sVmuscle
p4952
I5012
sVdrivers
p4953
I5013
sVstores
p4954
I2716
sVbarking
p4955
I5016
sVseats
p4956
I5017
sVprotecting
p4957
I2739
sVflashlight
p4958
I5018
sVonward
p4959
I5019
sVlake
p4960
I5020
sVbench
p4961
I5021
sVbackpacker
p4962
I5022
sVadd
p4963
I5023
sVsedan
p4964
I2035
sVcitizen
p4965
I5024
sVcrops
p4966
I3354
sVmatch
p4967
I5025
sVtests
p4968
I5026
sVnewsstand
p4969
I5027
sVdryer
p4970
I5028
sVlike
p4971
I5029
sVsofa
p4972
I2832
sVworks
p4973
I5031
sVsoft
p4974
I5032
sVheel
p4975
I5033
sVitalian
p4976
I5034
sVclassical
p4977
I5035
sVswimsuits
p4978
I5036
sVhair
p4979
I5037
sVproper
p4980
I5038
sVfoosball
p4981
I5039
sVshelter
p4982
I4212
sVmasked
p4983
I5041
sVbustling
p4984
I5042
sVspeak
p4985
I1935
sVchains
p4986
I5044
sVconference
p4987
I5392
sVpepper
p4988
I5046
sVhose
p4989
I5047
sVslight
p4990
I2939
sVbuttoned
p4991
I5048
sVpools
p4992
I5049
sVhost
p4993
I5050
sVpanel
p4994
I5391
sVbeaker
p4995
I5051
sVgifts
p4996
I5052
sVabout
p4997
I5053
sVboards
p4998
I2975
sVsmartly
p4999
I5054
sVpowerpoint
p5000
I5055
sVchildrens
p5001
I5056
sVbackpackers
p5002
I5057
sVzooms
p5003
I5058
sVsocks
p5004
I5059
sVguard
p5005
I5060
sVdoesnt
p5006
I5061
sVfemale
p5007
I5062
sVquickly
p5008
I5398
sVridge
p5009
I5064
sVadolescent
p5010
I5065
sVsmokey
p5011
I3661
sVvegetables
p5012
I5067
sVfirefighter
p5013
I5068
sVrushes
p5014
I5069
sVmaze
p5015
I5070
sVchunk
p5016
I3447
sVbuy
p5017
I5071
sVchatting
p5018
I5072
sVbus
p5019
I5073
sVbrand
p5020
I5074
sVsantas
p5021
I5075
sVbut
p5022
I5076
sVlandscaping
p5023
I5077
sVbun
p5024
I5078
sVbookshelf
p5025
I5079
sVinverted
p5026
I5080
sVbug
p5027
I5081
sVbud
p5028
I5082
sVpartially
p5029
I5083
sVmisty
p5030
I5084
sVdangerous
p5031
I5085
sVflip
p5032
I5087
sVskating
p5033
I5089
sVrabbits
p5034
I5090
sVpin
p5035
I5091
sVgarter
p5036
I3193
sVcircus
p5037
I3195
sVpie
p5038
I5092
sVpig
p5039
I5093
sVshooting
p5040
I5094
sVpit
p5041
I5095
sVcampus
p5042
I3222
sVdressed
p5043
I5096
sV40
p5044
I75
sVspecial
p5045
I1696
sVledge
p5046
I5098
sVgranite
p5047
I5099
sVdresses
p5048
I5100
sVdresser
p5049
I5101
sVbundle
p5050
I5102
sVbaker
p5051
I5103
sVentertainment
p5052
I3044
sVhiker
p5053
I5105
sVhikes
p5054
I5106
sVyell
p5055
I5107
sVbaked
p5056
I5108
sVbagpipe
p5057
I5109
sVassembles
p5058
I3348
sVsleep
p5059
I5111
sVhate
p5060
I5112
sVassembled
p5061
I5113
sVpoorly
p5062
I5114
sVtrolley
p5063
I5115
sVmuzzle
p5064
I5116
sVfeeding
p5065
I5117
sVclasps
p5066
I5118
sVpatches
p5067
I5119
sVparis
p5068
I5120
sS'<E>'
p5069
I2
sVunder
p5070
I5121
sVpride
p5071
I5122
sVcarried
p5072
I6715
sVmerchant
p5073
I5123
sVrise
p5074
I5124
sVevery
p5075
I3444
sVjack
p5076
I5126
sVconfetti
p5077
I5127
sVfireplace
p5078
I5129
sVschool
p5079
I5130
sVparrot
p5080
I569
sVsupports
p5081
I6529
sVvenue
p5082
I5133
sVguiding
p5083
I5134
sVjoggers
p5084
I5136
sVenjoy
p5085
I5137
sVbicycle
p5086
I5138
sVfeathers
p5087
I5139
sVdirect
p5088
I5140
sVnail
p5089
I5141
sVsurrounding
p5090
I5142
sVstreet
p5091
I5143
sVexpressions
p5092
I5144
sVshining
p5093
I5145
sVblue
p5094
I5146
sVhide
p5095
I5147
sVchrist
p5096
I5148
sVliberty
p5097
I5149
sVbriefcases
p5098
I3674
sVlampshade
p5099
I5150
sVconduct
p5100
I3162
sVsupplies
p5101
I5152
sVdisney
p5102
I5153
sVkicked
p5103
I5154
sVapplies
p5104
I1950
sVramps
p5105
I5156
sVhundreds
p5106
I5157
sVsocialize
p5107
I5158
sVstudio
p5108
I5159
sVkicker
p5109
I5160
sVpath
p5110
I5161
sVstares
p5111
I5162
sVproperty
p5112
I5164
sVluggage
p5113
I5165
sVleaves
p5114
I5166
sVjogging
p5115
I3647
sVdeere
p5116
I5169
sVprints
p5117
I5170
sVblowtorch
p5118
I5171
sVfigure
p5119
I6448
sVstraw
p5120
I5172
sVstrap
p5121
I3051
sVvisible
p5122
I5173
sVmeats
p5123
I5174
sVpunching
p5124
I5175
sVpantyhose
p5125
I5176
sVswings
p5126
I5177
sVscaffolding
p5127
I5178
sVwould
p5128
I5179
sVhospital
p5129
I5180
sVspiky
p5130
I5181
sVspike
p5131
I5182
sVlimousine
p5132
I5183
sVbillowing
p5133
I5185
sVphone
p5134
I5186
sVpouch
p5135
I3773
sVmust
p5136
I5188
sVshoot
p5137
I5189
sVma
p5138
I2544
sVskydivers
p5139
I5191
sVentertained
p5140
I3795
sVinstall
p5141
I5192
sVmr
p5142
I2656
sVentertainer
p5143
I5193
sVmy
p5144
I5194
sVdecorative
p5145
I5195
sVjoyous
p5146
I5196
sVdolphin
p5147
I5197
sVtimes
p5148
I5198
sVceremony
p5149
I5199
sVend
p5150
I5200
sVbunk
p5151
I5202
sVsitting
p5152
I4237
sVslalom
p5153
I5204
sVbuns
p5154
I5205
sVdrummer
p5155
I5206
sVadjacent
p5156
I5207
sVgate
p5157
I5208
sVcharging
p5158
I5209
sVpoker
p5159
I5210
sVpokes
p5160
I5211
sVdescription
p5161
I5212
sVmouths
p5162
I5213
sVmess
p5163
I5214
sVmesh
p5164
I3926
sVsparkler
p5165
I5216
sVparallel
p5166
I5217
sVamid
p5167
I5218
sVspout
p5168
I5219
sVdaredevil
p5169
I3972
sVupside
p5170
I5221
sVultimate
p5171
I3977
sVenter
p5172
I5223
sValoud
p5173
I5224
sVflippers
p5174
I5225
sVover
p5175
I5226
sVlondon
p5176
I4014
sVoven
p5177
I5228
sVglances
p5178
I5229
sVbeside
p5179
I5420
sVexhibits
p5180
I5232
sVwriting
p5181
I5233
sVkickboxer
p5182
I5234
sVcroquet
p5183
I5235
sVtourist
p5184
I5236
sVdalmation
p5185
I5237
sVreenactment
p5186
I5238
sVflotation
p5187
I5239
sVpinkish
p5188
I5240
sVshadows
p5189
I5241
sVpotatoes
p5190
I5242
sVshadowy
p5191
I5243
sVleading
p5192
I6132
sVchoir
p5193
I5244
sVfilling
p5194
I4144
sVvictory
p5195
I5245
sVfitness
p5196
I4150
sVsigning
p5197
I5247
sVcloths
p5198
I5248
sVgymnasium
p5199
I5249
sVwaffle
p5200
I5250
sVcelebrating
p5201
I5251
sVjuggling
p5202
I5252
sVponcho
p5203
I5253
sVdriving
p5204
I5254
sVstringed
p5205
I5255
sVgod
p5206
I4638
sVwashed
p5207
I5257
sVlaid
p5208
I5258
sVrollerskaters
p5209
I5259
sVgot
p5210
I5260
sVnewly
p5211
I4243
sVwashes
p5212
I5262
sVsplashed
p5213
I5263
sVcarcass
p5214
I5264
sVrail
p5215
I5265
sVchisels
p5216
I5266
sVfree
p5217
I5267
sVformation
p5218
I5268
sVrain
p5219
I1029
sVacrobat
p5220
I4294
sVgrasses
p5221
I5270
sVritual
p5222
I5271
sVdays
p5223
I5272
sVoutfits
p5224
I5273
sVsoda
p5225
I5274
sVonto
p5226
I5275
sValready
p5227
I5276
sVpuck
p5228
I5279
sVhearing
p5229
I5280
sVheaddresses
p5230
I5281
sVscissors
p5231
I5282
sVtoy
p5232
I5283
sVtheir
p5233
I6547
sVtop
p5234
I5285
sVtow
p5235
I5286
sVtoo
p5236
I5287
sVwildly
p5237
I5288
sVgowns
p5238
I5289
sVtoe
p5239
I5290
sVcurtains
p5240
I4444
sVceiling
p5241
I5292
sVtool
p5242
I5293
sVbrushes
p5243
I5294
sVserve
p5244
I5295
sVtook
p5245
I5296
sVwrapped
p5246
I3077
sVwestern
p5247
I5298
sVpostcards
p5248
I5299
sVreclining
p5249
I5300
sVstrung
p5250
I5301
sVtourists
p5251
I3078
sVflame
p5252
I5302
sVbeard
p5253
I3079
sVbridge
p5254
I5305
sVdonkey
p5255
I5306
sVfashion
p5256
I5307
sVhandkerchief
p5257
I5308
sVran
p5258
I5309
sVraw
p5259
I4550
sVheadbands
p5260
I6549
sVpompoms
p5261
I5312
sVleafs
p5262
I5313
sVleafy
p5263
I5314
sVseminar
p5264
I5315
sVsnow
p5265
I5317
sVrides
p5266
I5318
sVrider
p5267
I5319
sVcookout
p5268
I5320
sVthough
p5269
I5321
sVstyrofoam
p5270
I5322
sVplenty
p5271
I5323
sVcoin
p5272
I5324
sVglow
p5273
I5325
sVpeers
p5274
I5326
sVtreats
p5275
I5327
sVflop
p5276
I5328
sVmetal
p5277
I5329
sVfreeway
p5278
I5330
sVpineapple
p5279
I5331
sVentertaining
p5280
I5332
sVpolicewoman
p5281
I5333
sVqueen
p5282
I4697
sVpops
p5283
I5336
sVcolors
p5284
I5337
sVradio
p5285
I5338
sVearth
p5286
I5339
sVspits
p5287
I4747
sVzipping
p5288
I4752
sVshoeshine
p5289
I5341
sVrinsing
p5290
I5342
sVhighchair
p5291
I5343
sVmixture
p5292
I5344
sVsunglasses
p5293
I5345
sVasians
p5294
I5346
sVwatch
p5295
I5347
sVfluid
p5296
I5348
sVdespite
p5297
I4799
sVfrying
p5298
I5350
sVhaiti
p5299
I4804
sVfabrics
p5300
I5351
sVbeads
p5301
I5352
sVcountries
p5302
I5353
sVsolders
p5303
I5354
sVrowing
p5304
I5355
sVlicking
p5305
I5356
sVplush
p5306
I5357
sVshots
p5307
I5358
sVruins
p5308
I5359
sVthumbs
p5309
I5437
sVduck
p5310
I6444
sVliquor
p5311
I5361
sVnun
p5312
I5362
sVnoodles
p5313
I5363
sVjerseys
p5314
I5364
sVgladiator
p5315
I5365
sVinterviewing
p5316
I5366
sVgrandmother
p5317
I5367
sVmud
p5318
I5368
sVmug
p5319
I5369
sVfinger
p5320
I5371
sVapproach
p5321
I5372
sVherding
p5322
I5373
sVleaping
p5323
I898
sVtoothbrush
p5324
I5375
sVsoutheast
p5325
I5376
sVwear
p5326
I5377
sVnews
p5327
I5378
sVflowering
p5328
I5379
sVsurfer
p5329
I5380
sVfaced
p5330
I5381
sVprotect
p5331
I5382
sVsanitation
p5332
I5383
sVjelly
p5333
I5384
sVparticipating
p5334
I5385
sVplayers
p5335
I5386
sVlayered
p5336
I5387
sVgames
p5337
I5388
sVfaces
p5338
I5389
sVtowels
p5339
I5390
sVbingo
p5340
I5045
sVbathroom
p5341
I5393
sVpedaling
p5342
I5394
sVbikinis
p5343
I5395
sVropes
p5344
I5396
sVbeen
p5345
I5397
sVblower
p5346
I5063
sVbeer
p5347
I5399
sVroped
p5348
I5400
sVcontainers
p5349
I5401
sVcraft
p5350
I5402
sVrowers
p5351
I5403
sVcatch
p5352
I5404
sVglides
p5353
I5405
sVglider
p5354
I5406
sVcracker
p5355
I5407
sVn
I5408
sVteachers
p5356
I5409
sVstopping
p5357
I5410
sVcracked
p5358
I5411
sVprocedure
p5359
I5412
sVhooping
p5360
I3098
sVpyramid
p5361
I5413
sVhandrail
p5362
I5414
sVaccessories
p5363
I5415
sVexterior
p5364
I5416
sVinteracts
p5365
I5417
sVcontaining
p5366
I5418
sVnike
p5367
I5419
sVforehead
p5368
I5230
sVcomplex
p5369
I5421
sVseveral
p5370
I5422
sVmoose
p5371
I5423
sVbasketballs
p5372
I5424
sVpeaks
p5373
I5425
sVpick
p5374
I939
sVeyeshadow
p5375
I3104
sVcharacters
p5376
I5427
sVcycle
p5377
I5428
sVocean
p5378
I5429
sVwaterskis
p5379
I5430
sVmother
p5380
I5431
sVhearts
p5381
I5432
sVjean
p5382
I5433
sVshadowed
p5383
I5434
sVsnowman
p5384
I5334
sVassembling
p5385
I5435
sVlaptop
p5386
I5436
sVtransporting
p5387
I5360
sVcolumned
p5388
I5439
sVcollars
p5389
I5440
sVcherry
p5390
I639
sVpharmacy
p5391
I5442
sVteenager
p5392
I5443
sVclapping
p5393
I4283
sVturquoise
p5394
I5445
sVcasting
p5395
I5446
sVmounds
p5396
I5447
sVbands
p5397
I5448
sVbreaks
p5398
I5449
sVcultural
p5399
I5450
sVdescending
p5400
I5451
sVjudge
p5401
I5452
sVburns
p5402
I5454
sVburnt
p5403
I5455
sVapart
p5404
I5456
sVmelting
p5405
I5457
sVappearing
p5406
I5453
sVgift
p5407
I5458
sVhunt
p5408
I5459
sV50
p5409
I5460
sVspecific
p5410
I5461
sVofficer
p5411
I5462
sVhung
p5412
I5463
sVpetting
p5413
I5464
sVspongebob
p5414
I5465
sVproudly
p5415
I5466
sVsponge
p5416
I5467
sVclubs
p5417
I5468
sVscrabble
p5418
I5469
sVescape
p5419
I5470
sVdoorstep
p5420
I5471
sVcompanions
p5421
I5472
sVice
p5422
I5473
sVeverything
p5423
I5474
sVicy
p5424
I5475
sVchristmas
p5425
I5476
sVflaps
p5426
I5477
sVcord
p5427
I5478
sVkhaki
p5428
I5479
sVcorn
p5429
I5480
sVcork
p5430
I5481
sVcorp
p5431
I5482
sVengaged
p5432
I4303
sVdalmatian
p5433
I5483
sVcowboy
p5434
I5484
sVsurround
p5435
I5485
sVdinner
p5436
I5486
sVgenocide
p5437
I3758
sVprimitive
p5438
I5487
sVpresence
p5439
I5488
sVcivil
p5440
I5489
sVpuzzle
p5441
I5490
sVbath
p5442
I5491
sVbats
p5443
I5492
sVcafeteria
p5444
I5493
sVcubicle
p5445
I78
sVrounds
p5446
I5494
sVsunlight
p5447
I5495
sVclass
p5448
I6573
sVgig
p5449
I5497
sVstuck
p5450
I5498
sVtowing
p5451
I5499
sVhead
p5452
I5500
sVmedium
p5453
I5501
sVsteers
p5454
I5502
sVparasails
p5455
I5503
sVgorgeous
p5456
I5504
sVremoves
p5457
I5505
sVheat
p5458
I5506
sVhear
p5459
I5507
sVsolar
p5460
I5508
sVremoved
p5461
I5509
sVchests
p5462
I5510
sVdollhouse
p5463
I5511
sVmannequins
p5464
I5512
sVdecorate
p5465
I5513
sVtrim
p5466
I5514
sVbrightly
p5467
I5515
sVcobbled
p5468
I1901
sVforearm
p5469
I5517
sVshined
p5470
I5518
sVshines
p5471
I5519
sVcheck
p5472
I5520
sVconstructed
p5473
I5521
sVpipe
p5474
I6576
sVoutstretched
p5475
I5523
sVno
p5476
I5524
sVwhen
p5477
I1358
sVny
p5478
I5014
sVtin
p5479
I5526
sVsetting
p5480
I5527
sVpapers
p5481
I5528
sVtie
p5482
I5529
sVdepot
p5483
I5530
sVevergreen
p5484
I5531
sVpicture
p5485
I5532
sVgrasps
p5486
I5533
sVfootball
p5487
I5534
sVsaxophonist
p5488
I5535
sVyounger
p5489
I5536
sVsacks
p5490
I5537
sVserious
p5491
I5538
sVbackward
p5492
I5539
sVstacks
p5493
I5540
sVcoach
p5494
I5541
sVvarying
p5495
I5542
sVrod
p5496
I5543
sVfocus
p5497
I5544
sVleads
p5498
I5545
sVdisplaying
p5499
I5546
sVrow
p5500
I5547
sVcontemplating
p5501
I5548
sVpassage
p5502
I5549
sVenvironment
p5503
I5550
sVflowered
p5504
I5551
sVpromoting
p5505
I5552
sVhammers
p5506
I5553
sVadvantage
p5507
I10
sVfleece
p5508
I5556
sVcongregation
p5509
I5557
sVtanks
p5510
I5558
sVartwork
p5511
I5559
sVhatted
p5512
I5560
sVcool
p5513
I5561
sVclouds
p5514
I5562
sVimpressive
p5515
I420
sVpoliceman
p5516
I5564
sVposts
p5517
I5565
sVbrother
p5518
I5566
sVcloudy
p5519
I5567
sVquick
p5520
I5568
sVdries
p5521
I5569
sVsays
p5522
I5570
sVdried
p5523
I5571
sVcomforting
p5524
I5572
sVbake
p5525
I5573
sVbales
p5526
I5574
sVport
p5527
I6163
sVdrinks
p5528
I5575
sVstands
p5529
I5576
sVgoes
p5530
I5577
sVhairy
p5531
I5578
sVwater
p5532
I5579
sVentertain
p5533
I5580
sVbaseball
p5534
I5581
sVgroups
p5535
I5582
sVunidentified
p5536
I5583
sVbeanbag
p5537
I5584
sVhealthy
p5538
I5585
sVsharpening
p5539
I5587
sVlamps
p5540
I5588
sVweird
p5541
I5589
sVtuxedo
p5542
I5590
sVpeer
p5543
I5591
sVtouchdown
p5544
I5592
sVsledgehammer
p5545
I5593
sVvivid
p5546
I5594
sVsports
p5547
I5596
sVhandles
p5548
I5597
sVhandler
p5549
I5598
sVprey
p5550
I5599
sViphone
p5551
I5600
sVtoday
p5552
I5601
sVsmeared
p5553
I5602
sVconductor
p5554
I5604
sVcashier
p5555
I5605
sVchocolate
p5556
I5606
sVbeers
p5557
I5607
sVcases
p5558
I5608
sVpiano
p5559
I6585
sVstates
p5560
I5610
sVwands
p5561
I5612
sVhandsaw
p5562
I5613
sVferry
p5563
I6429
sVnewspapers
p5564
I5614
sVoverpass
p5565
I5615
sVperformer
p5566
I5616
sVnursing
p5567
I5617
sVstream
p5568
I5618
sVtinted
p5569
I5619
sVdropped
p5570
I5620
sVsailboat
p5571
I5621
sVsecured
p5572
I5622
sV1
I5623
sVfourth
p5573
I5624
sVspeaks
p5574
I5625
sVmichigan
p5575
I5885
sVcrashes
p5576
I4251
sVinformation
p5577
I5627
sVgranddaughter
p5578
I5628
sVneeds
p5579
I4330
sVcrashed
p5580
I5629
sV4th
p5581
I1172
sVtipped
p5582
I5631
sVwakeboarder
p5583
I5632
sVfloral
p5584
I5633
sVclassroom
p5585
I5634
sVbranches
p5586
I5635
sVliquid
p5587
I5636
sVdrumsticks
p5588
I5637
sVglancing
p5589
I5638
sVhilltop
p5590
I5639
sVcomfort
p5591
I5640
sVwords
p5592
I6590
sVmainly
p5593
I5642
sVmotions
p5594
I5643
sVworship
p5595
I5644
sVblocked
p5596
I5645
sVredheaded
p5597
I5646
sVchips
p5598
I6592
sVcheerleaders
p5599
I6621
sVplatform
p5600
I5648
sVcontinue
p5601
I5603
sVfarmer
p5602
I5650
sVswans
p5603
I5651
sVfloat
p5604
I2032
sVmoms
p5605
I5653
sVconversations
p5606
I5654
sVunderneath
p5607
I5655
sVfeathered
p5608
I5656
sVwagon
p5609
I5657
sVtrucks
p5610
I1973
sVtrunks
p5611
I5659
sVpopulated
p5612
I5660
sVtorch
p5613
I5661
sVcatching
p5614
I5662
sVzebra
p5615
I5663
sVsunrise
p5616
I5664
sVtulips
p5617
I5665
sVoklahoma
p5618
I5666
sVfactory
p5619
I5667
sVcoolers
p5620
I5668
sVshe
p5621
I5669
sVeagle
p5622
I305
sVhula
p5623
I5671
sVflyer
p5624
I5673
sVgrab
p5625
I5674
sVmotion
p5626
I5675
sVturn
p5627
I5676
sVplace
p5628
I5677
sVswing
p5629
I5678
sVturf
p5630
I5679
sVteammates
p5631
I5680
sVpelican
p5632
I5681
sVrafts
p5633
I6598
sVsoaring
p5634
I5682
sVfetches
p5635
I5683
sVarray
p5636
I5684
sVpokemon
p5637
I5685
sVcheerfully
p5638
I53
sVpeddles
p5639
I4112
sVsurveys
p5640
I128
sVdistrict
p5641
I5688
sVplastic
p5642
I5690
sVreturns
p5643
I152
sVarcade
p5644
I1227
sVconvention
p5645
I5692
sVwhite
p5646
I5693
sVgives
p5647
I5694
sVgirder
p5648
I169
sVhug
p5649
I5696
sVreleases
p5650
I5697
sVterrain
p5651
I2613
sVcheerleading
p5652
I5699
sVhut
p5653
I5700
sVreleased
p5654
I198
sVcopy
p5655
I5702
sVholder
p5656
I5703
sVwide
p5657
I5704
sVofficials
p5658
I2722
sVcards
p5659
I5706
sVpowder
p5660
I5707
sVpre
p5661
I257
sVtwisting
p5662
I5709
sVpro
p5663
I5710
sVmates
p5664
I5711
sVtanning
p5665
I5712
sVexchanging
p5666
I5713
sVsells
p5667
I5714
sVany
p5668
I5715
sVmarathon
p5669
I294
sVsuperman
p5670
I5717
sVsilhouette
p5671
I5718
sVchessboard
p5672
I5719
sVdining
p5673
I5721
sVresembling
p5674
I5722
sVtambourine
p5675
I5723
sVsurf
p5676
I5724
sVsure
p5677
I5725
sVmultiple
p5678
I5726
sVequestrian
p5679
I5727
sVfalls
p5680
I5728
sVvisitors
p5681
I5729
sVcleared
p5682
I5730
sVpencils
p5683
I375
sVseafood
p5684
I5732
sVproud
p5685
I5586
sVhungry
p5686
I5733
sVatvs
p5687
I5734
sVbeaded
p5688
I5735
sVsenior
p5689
I5736
sVslope
p5690
I5737
sVapplauding
p5691
I5739
sVrecipe
p5692
I5740
sVdandelions
p5693
I5741
sVstate
p5694
I5743
sVcrime
p5695
I5744
sVprays
p5696
I5745
sVwood
p5697
I5746
sVwool
p5698
I5747
sVlighted
p5699
I5748
sVjazz
p5700
I5749
sVbegging
p5701
I5750
sVlighter
p5702
I5751
sVdye
p5703
I5752
sVhedge
p5704
I5753
sValuminum
p5705
I5754
sVworkman
p5706
I5755
sVnaked
p5707
I5756
sVclowns
p5708
I5757
sVthrough
p5709
I5758
sVpants
p5710
I6607
sVdiscussing
p5711
I5760
sVmicrophones
p5712
I5761
sVpoling
p5713
I573
sVpicnic
p5714
I578
sVturntable
p5715
I5764
sVcollege
p5716
I5765
sVparking
p5717
I5766
sVcollects
p5718
I5767
sVsunhats
p5719
I5768
sVbicyclist
p5720
I633
sVways
p5721
I5770
sVspoons
p5722
I644
sVoutside
p5723
I5772
sVbuckets
p5724
I5773
sVarrival
p5725
I5774
sVsungalsses
p5726
I5775
sVguitar
p5727
I5776
sVpeering
p5728
I6392
sVfiddling
p5729
I5777
sVdiners
p5730
I5778
sVcomb
p5731
I5779
sVcome
p5732
I5780
sVreaction
p5733
I5781
sVregion
p5734
I5784
sVpriests
p5735
I5785
sVquiet
p5736
I5786
sVrailway
p5737
I5787
sVduty
p5738
I5788
sVkey
p5739
I5789
sVbricks
p5740
I5790
sVkazoo
p5741
I740
sVpot
p5742
I5791
sVhunched
p5743
I5792
sVtrio
p5744
I5516
sVpop
p5745
I5794
sVpabst
p5746
I5795
sVpole
p5747
I5796
sVpolo
p5748
I5797
sVpoll
p5749
I5798
sVturkey
p5750
I5799
sVteammate
p5751
I5800
sVspotlights
p5752
I5801
sVpeaceful
p5753
I5802
sVhelicopter
p5754
I5803
sVfeaturing
p5755
I803
sVabstract
p5756
I5805
sVengine
p5757
I5806
sVdirection
p5758
I5807
sVtiger
p5759
I5808
sVeatery
p5760
I5809
sVmuscular
p5761
I5810
sVcareful
p5762
I855
sVpilot
p5763
I5812
sVpaying
p5764
I865
sVshaft
p5765
I5814
sVwineglasses
p5766
I5815
sVonesie
p5767
I5816
sVspiderman
p5768
I5817
sVmount
p5769
I5818
sVcash
p5770
I5819
sVcast
p5771
I5820
sVshops
p5772
I901
sVcarpentry
p5773
I5822
sVvest
p5774
I5823
sVpunches
p5775
I5824
sVtelephone
p5776
I5825
sVcouples
p5777
I5826
sVsomeone
p5778
I5827
sVpruning
p5779
I5828
sVhelmet
p5780
I5829
sVparticipant
p5781
I5830
sVauthor
p5782
I5831
sVbowl
p5783
I974
sVtrip
p5784
I5833
sVbows
p5785
I5834
sVbuys
p5786
I5835
sVisle
p5787
I2300
sVderby
p5788
I1329
sVbarefoot
p5789
I5837
sVbooths
p5790
I5838
sVdriver
p5791
I5839
sVdrives
p5792
I5840
sVweed
p5793
I5841
sVdirector
p5794
I1008
sVpersons
p5795
I5843
sVcanister
p5796
I5844
sVstatue
p5797
I5845
sVchanging
p5798
I5846
sVvocalist
p5799
I1024
sVranch
p5800
I5848
sVrecital
p5801
I5849
sVwithout
p5802
I5850
sVdeflated
p5803
I5851
sVmodel
p5804
I5852
sVbodies
p5805
I5853
sVdesolate
p5806
I5854
sVtip
p5807
I5525
sVguided
p5808
I5856
sVkilt
p5809
I5857
sVkill
p5810
I5858
sVpolish
p5811
I5859
sVguides
p5812
I1100
sVcaptured
p5813
I1102
sVhalfway
p5814
I5862
sVblow
p5815
I5863
sVannouncement
p5816
I5864
sVwomans
p5817
I5865
sVrose
p5818
I5866
sVseems
p5819
I5867
sVexcept
p5820
I5868
sVpallet
p5821
I57
sVlets
p5822
I1124
sVshrine
p5823
I5869
sVsamples
p5824
I5870
sVhind
p5825
I5871
sVpoised
p5826
I3461
sVstyled
p5827
I5873
sVcolor
p5828
I5874
sVfurniture
p5829
I5875
sVtowel
p5830
I5876
sVshoeless
p5831
I5877
sVtowed
p5832
I1198
sVoddly
p5833
I5879
sVdonations
p5834
I5881
sVtower
p5835
I5882
sVjoking
p5836
I5883
sVpacific
p5837
I1243
sVcowboys
p5838
I5886
sVslice
p5839
I5887
sVshirtless
p5840
I5888
sVstops
p5841
I1280
sVmoon
p5842
I5889
sVhipster
p5843
I5890
sVeiffel
p5844
I5891
sVnails
p5845
I5892
sVinspect
p5846
I5893
sVon
p5847
I1347
sVpinstriped
p5848
I5220
sVoh
p5849
I5896
sVjeep
p5850
I5897
sVof
p5851
I5898
sVperuses
p5852
I5899
sVshrimp
p5853
I5900
sVstand
p5854
I5901
sVox
p5855
I5902
sVdiscusses
p5856
I5903
sVor
p5857
I5904
sVknits
p5858
I5905
sVop
p5859
I5906
sVamber
p5860
I5907
sVtribe
p5861
I5908
sVladies
p5862
I5909
sVinstruments
p5863
I5910
sVgarb
p5864
I5911
sVclams
p5865
I5912
sVrising
p5866
I5913
sVbends
p5867
I5914
sVthere
p5868
I5915
sVferris
p5869
I1456
sVvalley
p5870
I5916
sVenergy
p5871
I5917
sVjug
p5872
I1482
sVvested
p5873
I5919
sVeyeliner
p5874
I5920
sVamongst
p5875
I5921
sVmonks
p5876
I581
sVapplying
p5877
I5923
sVflats
p5878
I5924
sVgrass
p5879
I5925
sVcastles
p5880
I5926
sVtoilet
p5881
I5927
sVtaste
p5882
I5929
sVbritain
p5883
I5930
sVtasty
p5884
I5931
sVblues
p5885
I5932
sVhit
p5886
I6193
sVbeds
p5887
I5933
sVfiddles
p5888
I5934
sVbicycling
p5889
I5935
sVswords
p5890
I5936
sVrubber
p5891
I5937
sVroses
p5892
I5938
sV5
I5939
sVtrash
p5893
I5940
sVpaddy
p5894
I5941
sVchampionship
p5895
I5942
sVpillows
p5896
I5943
sVseparate
p5897
I5944
sVsymbol
p5898
I5945
sVmidair
p5899
I5946
sVincludes
p5900
I5947
sVlovers
p5901
I5948
sVbrass
p5902
I5949
sVlipstick
p5903
I5950
sVcalls
p5904
I5951
sVwife
p5905
I5952
sVcurve
p5906
I5953
sVcurvy
p5907
I5954
sVrimmed
p5908
I5955
sVapparel
p5909
I5956
sVpeeks
p5910
I5957
sVplatter
p5911
I5958
sVtanned
p5912
I5959
sVall
p5913
I5960
sVlace
p5914
I5961
sVchinese
p5915
I5962
sVlack
p5916
I1692
sVladders
p5917
I5963
sVsurgical
p5918
I5964
sVdisc
p5919
I1700
sVdish
p5920
I5966
sVfollow
p5921
I5967
sVdisk
p5922
I5968
sVearmuffs
p5923
I5969
sVapartment
p5924
I5970
sVlining
p5925
I5971
sVparticipants
p5926
I5972
sVsparkling
p5927
I5973
sVpresent
p5928
I6634
sVcrest
p5929
I1747
sVtethered
p5930
I5977
sVactivities
p5931
I5978
sVwoman
p5932
I5979
sVegyptian
p5933
I1759
sVfar
p5934
I5981
sVgrinds
p5935
I5982
sVfat
p5936
I5983
sVsweaters
p5937
I2733
sVfan
p5938
I5985
sVticket
p5939
I1787
sVtreating
p5940
I5987
sVlist
p5941
I5989
sVgrandfather
p5942
I5990
sVtrench
p5943
I5991
sVsaxophone
p5944
I5992
sVsalute
p5945
I5993
sVten
p5946
I5995
sVbistro
p5947
I5996
sVtea
p5948
I5997
sVreins
p5949
I5998
sVtee
p5950
I5999
sVdesign
p5951
I6000
sVwhat
p5952
I6001
sVsub
p5953
I6002
sVdeeply
p5954
I1880
sVsuv
p5955
I6004
sVversion
p5956
I6005
sVpulpit
p5957
I6006
sVracing
p5958
I6007
sVguns
p5959
I6008
sVsunbathers
p5960
I6009
sVtoes
p5961
I6010
sVchristian
p5962
I6011
sVtags
p5963
I6012
sVdirections
p5964
I6013
sVrakes
p5965
I6014
sVobserving
p5966
I6015
sVhovers
p5967
I6016
sVminiature
p5968
I6018
sVmilkshake
p5969
I6019
sVcamcorder
p5970
I6020
sVsticking
p5971
I6021
sVscreens
p5972
I6022
sVtexts
p5973
I6023
sVbeginning
p5974
I3318
sVkeyboardist
p5975
I6025
sVrustic
p5976
I2038
sVbranded
p5977
I6027
sVmarkets
p5978
I6028
sVhorses
p5979
I6029
sVflat
p5980
I6030
sVisrael
p5981
I6031
sVnewlyweds
p5982
I2994
sVoboe
p5983
I6032
sVgrabbing
p5984
I6033
sVowners
p5985
I6034
sVflag
p5986
I6035
sVstethoscope
p5987
I6036
sVstick
p5988
I6037
sVknown
p5989
I6038
sVrooster
p5990
I6642
sVsleeveless
p5991
I6040
sVpolicemen
p5992
I6041
sVwrestler
p5993
I6042
sVwrestles
p5994
I2056
sVbracelet
p5995
I5878
sVblossoming
p5996
I6297
sVpony
p5997
I6044
sVchallenging
p5998
I6045
sVprotects
p5999
I6046
sVpond
p6000
I6047
sVpong
p6001
I2178
sVswung
p6002
I6049
sVearpiece
p6003
I6050
sVchores
p6004
I2184
sVcourt
p6005
I6052
sVdreads
p6006
I3384
sVkhakis
p6007
I6054
sVrather
p6008
I6055
sVbreaking
p6009
I6057
sVspeeding
p6010
I6058
sVexplains
p6011
I6059
sVgoat
p6012
I6060
sVsandwich
p6013
I6061
sVhoisting
p6014
I2256
sVlighting
p6015
I2262
sVadventure
p6016
I6062
sVwelds
p6017
I6063
sVsoftball
p6018
I6064
sVconcentrating
p6019
I6065
sVshort
p6020
I6066
sVshady
p6021
I6067
sVsupervision
p6022
I6068
sVshore
p6023
I6069
sVshade
p6024
I6070
sVmaneuver
p6025
I5670
sVlifeguards
p6026
I6071
sVbuddhist
p6027
I6072
sVhandlebars
p6028
I6073
sVdisabled
p6029
I6074
sVcook
p6030
I6075
sVisnt
p6031
I6076
sVscientist
p6032
I6077
sVavenue
p6033
I6078
sVstyle
p6034
I6079
sVmattress
p6035
I6080
sVresort
p6036
I6081
sVstrange
p6037
I6082
sVbout
p6038
I6083
sVsoccer
p6039
I6084
sVmight
p6040
I6085
sVreturn
p6041
I2387
sVsucking
p6042
I6087
sVhunter
p6043
I6088
sVclippers
p6044
I6089
sVvideotapes
p6045
I6090
sVbigger
p6046
I6091
sVcouches
p6047
I5563
sVlevel
p6048
I6093
sVsnowboarders
p6049
I6094
sVtilted
p6050
I6095
sVpirates
p6051
I6096
sVweight
p6052
I6097
sVfixture
p6053
I6099
sVscratching
p6054
I6100
sVinflated
p6055
I6101
sVbraided
p6056
I6102
sValcohol
p6057
I6103
sVdugout
p6058
I6104
sVhealth
p6059
I6105
sVhill
p6060
I6106
sVcaucasian
p6061
I6108
sVhailing
p6062
I6109
sVroofs
p6063
I6110
sVcookie
p6064
I6111
sVattendant
p6065
I2567
sVsidewalk
p6066
I6113
sVthrown
p6067
I2571
sVthread
p6068
I6115
sVrollerblader
p6069
I6116
sVrollerblades
p6070
I6117
sVcircuit
p6071
I6118
sVsnowboarding
p6072
I6119
sVbookbag
p6073
I2594
sVthrows
p6074
I6121
sVfeed
p6075
I6122
sVfeel
p6076
I6123
sVfancy
p6077
I6124
sVfeet
p6078
I6125
sVsailor
p6079
I2620
sVconstruct
p6080
I6126
sVblank
p6081
I2625
sVtraveler
p6082
I6128
sVpasser
p6083
I2636
sVpasses
p6084
I6130
sVstory
p6085
I6131
sVautomobile
p6086
I1811
sVinteract
p6087
I2654
sVrails
p6088
I2659
sVlobby
p6089
I6657
sVpassed
p6090
I2674
sVsyrup
p6091
I6137
sVoutcropping
p6092
I2680
sVstore
p6093
I6139
sVpump
p6094
I6140
sVhotel
p6095
I6141
sVpassersby
p6096
I6142
sVrifle
p6097
I6143
sVuncut
p6098
I6144
sVsurfboard
p6099
I6145
sVking
p6100
I6146
sVkind
p6101
I6147
sVdouble
p6102
I6148
sVinstruction
p6103
I6149
sVaims
p6104
I6150
sVstall
p6105
I6151
sVoutdoors
p6106
I6152
sVtongues
p6107
I6153
sVcleaner
p6108
I6154
sVuniforms
p6109
I6155
sVskyscrapers
p6110
I6156
sValike
p6111
I6157
sVcleaned
p6112
I6158
sVsquints
p6113
I6159
sVrugs
p6114
I6160
sVcropped
p6115
I6162
sVsandwiches
p6116
I6164
sVpianist
p6117
I2827
sVbuff
p6118
I6166
sVelectric
p6119
I6167
sVtwirl
p6120
I6663
sVreach
p6121
I6169
sVcigarette
p6122
I6170
sVstorefronts
p6123
I6171
sVnothing
p6124
I6172
sVmachete
p6125
I6173
sVpatterned
p6126
I6174
sVwindows
p6127
I6175
sVtraditional
p6128
I6176
sVscantily
p6129
I6177
sVsombrero
p6130
I6178
sVassistance
p6131
I6180
sVlying
p6132
I6181
sVstones
p6133
I6182
sVbending
p6134
I6664
sVasphalt
p6135
I2899
sVcds
p6136
I2926
sVsecuring
p6137
I6187
sVanvil
p6138
I6188
sVheavily
p6139
I6666
sVbreakdancing
p6140
I6189
sVatv
p6141
I139
sVhip
p6142
I6190
sVshepherd
p6143
I6191
sVhis
p6144
I6192
sVtriangle
p6145
I5316
sVwhistle
p6146
I6194
sVsaluting
p6147
I6195
sVbeards
p6148
I6196
sVbanquet
p6149
I3019
sVnecked
p6150
I6198
sVactivity
p6151
I6199
sVwheeling
p6152
I6200
sVsnowstorm
p6153
I6201
sVballerinas
p6154
I6202
sVbars
p6155
I6203
sVstump
p6156
I3070
sVdump
p6157
I6205
sVchoreographed
p6158
I6206
sVdefense
p6159
I3090
sVbare
p6160
I6207
sVare
p6161
I6208
sVbark
p6162
I6210
sVarm
p6163
I6211
sVbarn
p6164
I6212
sVyouth
p6165
I6213
sVlearns
p6166
I3119
sVunpaved
p6167
I6214
sVcreme
p6168
I6215
sVvarious
p6169
I6216
sVplywood
p6170
I3146
sVnumerous
p6171
I3157
sVsolo
p6172
I6217
sVpaisley
p6173
I6218
sVlatin
p6174
I6219
sVrecently
p6175
I6220
sVcreating
p6176
I6221
sVsold
p6177
I6222
sVsole
p6178
I3176
sVoutfit
p6179
I6224
sVopposition
p6180
I6225
sVbibs
p6181
I6226
sVlap
p6182
I1773
sVbronze
p6183
I6227
sVc
I6228
sVblazer
p6184
I113
sVlicense
p6185
I6229
sVroman
p6186
I6230
sVfinds
p6187
I6231
sVflies
p6188
I6232
sVsweet
p6189
I6233
sVsnowshoeing
p6190
I6234
sVsweep
p6191
I6235
sVvillage
p6192
I6236
sVgoats
p6193
I6237
sVsuspenders
p6194
I6238
sVhoops
p6195
I2122
sVoverlook
p6196
I6239
sVpolitical
p6197
I6240
sVdue
p6198
I6241
sVwhos
p6199
I3292
sVpc
p6200
I4440
sVbrick
p6201
I6244
sVsiting
p6202
I6245
sVreferee
p6203
I6246
sVflight
p6204
I6247
sVsending
p6205
I5720
sVquintet
p6206
I6249
sVfirefighters
p6207
I6250
sVcondoms
p6208
I6251
sVrocking
p6209
I6252
sVinstructor
p6210
I6253
sVplants
p6211
I6254
sVworkmen
p6212
I6255
sVguarding
p6213
I6256
sVfrozen
p6214
I6257
sVfootballer
p6215
I6258
sVpitchfork
p6216
I6259
sVparachutes
p6217
I6260
sVbarricade
p6218
I6261
sVhomework
p6219
I6262
sVtheres
p6220
I4937
sVleans
p6221
I6264
sVrollerskating
p6222
I6265
sVobstacle
p6223
I3417
sVrig
p6224
I6267
sVethnicity
p6225
I6268
sVwaterside
p6226
I3439
sVparading
p6227
I6270
sVkimono
p6228
I6272
sVpeoples
p6229
I6273
sV9
I6274
sVdaughters
p6230
I6275
sVhigher
p6231
I6276
sVcrowding
p6232
I6133
sVcement
p6233
I6278
sVmoving
p6234
I3492
sVlower
p6235
I6279
sVnoodle
p6236
I6280
sVcongregated
p6237
I6281
sVcheek
p6238
I6282
sVchickens
p6239
I3525
sVcheer
p6240
I6284
sVedge
p6241
I6285
sVmachinery
p6242
I6286
sVwrangling
p6243
I6287
sVself
p6244
I3265
sVhotdog
p6245
I6289
sVpigeons
p6246
I6291
sVcatchers
p6247
I6686
sVcompetitive
p6248
I6292
sVquestions
p6249
I6293
sVtables
p6250
I6294
sVloading
p6251
I6295
sVtablet
p6252
I6296
sVworkers
p6253
I6298
sVexhibition
p6254
I6299
sVshovels
p6255
I3623
sVcustomers
p6256
I6301
sVvendor
p6257
I6302
sVinspects
p6258
I1226
sVshaped
p6259
I6304
sVshapes
p6260
I6305
sVcollect
p6261
I6306
sVsprinklers
p6262
I6307
sVjumpsuits
p6263
I6308
sVstreaming
p6264
I6309
sVlitter
p6265
I6310
sVcandy
p6266
I6311
sVsaucer
p6267
I6312
sVprop
p6268
I3770
sVtends
p6269
I6313
sVbartender
p6270
I6314
sVjumps
p6271
I3801
sVzombie
p6272
I6315
sValoft
p6273
I6316
sVtinker
p6274
I6317
sVupraised
p6275
I6318
sVintense
p6276
I6319
sVprojector
p6277
I6320
sVviolins
p6278
I6321
sVcompleting
p6279
I6322
sVfiring
p6280
I3849
sVwineglass
p6281
I6324
sVsurfers
p6282
I6325
sVstricken
p6283
I6326
sVrange
p6284
I6327
sVgreets
p6285
I6328
sVballgame
p6286
I6329
sVwomens
p6287
I6330
sVcutoff
p6288
I6331
sVjohns
p6289
I6332
sVmustached
p6290
I6333
sVstrumming
p6291
I6334
sVcanal
p6292
I6335
sVrows
p6293
I6336
sVquestion
p6294
I3933
sVlong
p6295
I3072
sVbaggy
p6296
I6339
sVvendors
p6297
I6340
sVmountains
p6298
I6341
sVskewers
p6299
I6342
sVcloth
p6300
I6343
sVfiled
p6301
I6344
sVupright
p6302
I6345
sVcrane
p6303
I6346
sVraising
p6304
I6347
sVpenguin
p6305
I6348
sVselects
p6306
I6349
sVfries
p6307
I6350
sVcartwheel
p6308
I6351
sVcalled
p6309
I6352
sVv
I6043
sVsoars
p6310
I6353
sVwarning
p6311
I6354
sVrally
p6312
I6355
sVrainbow
p6313
I6356
sVrainy
p6314
I6357
sVlemon
p6315
I6358
sVriot
p6316
I6359
sVpeach
p6317
I6360
sVrains
p6318
I6361
sVoverseeing
p6319
I1581
sVbacks
p6320
I6363
sVtowers
p6321
I5988
sVparlor
p6322
I6365
sVmock
p6323
I6366
sVreflections
p6324
I4473
sVvaulting
p6325
I6368
sVmustard
p6326
I6369
sVhelping
p6327
I6370
sVdonkeys
p6328
I6371
sVinsect
p6329
I4606
sVwakeboarding
p6330
I6372
sVvigil
p6331
I6373
sVposters
p6332
I6374
sVbarrel
p6333
I6375
sVpottery
p6334
I6376
sVskydive
p6335
I6377
sVpotters
p6336
I6378
sVturtleneck
p6337
I4219
sVweights
p6338
I6379
sVbroad
p6339
I6380
sVbuffalo
p6340
I6382
sVscroll
p6341
I6383
sVonce
p6342
I6384
sVmardi
p6343
I6385
sVwrestle
p6344
I6386
sVhooks
p6345
I6387
sVwindy
p6346
I6388
sVgang
p6347
I4248
sVwinds
p6348
I6389
sVmagnifying
p6349
I6390
sVcruiser
p6350
I1064
sVfenced
p6351
I4280
sVsqueezing
p6352
I6393
sVinclude
p6353
I6394
sVfences
p6354
I6395
sVdramatically
p6355
I6396
sVwaiters
p6356
I6397
sVrag
p6357
I4527
sVbreathing
p6358
I6398
sVladle
p6359
I4000
sVspool
p6360
I6399
sVspoon
p6361
I6400
sVgraphic
p6362
I6401
sVbounding
p6363
I6402
sVdrinking
p6364
I6404
sVtutu
p6365
I6406
sVnotes
p6366
I6407
sVsmaller
p6367
I6409
sVgripping
p6368
I6410
sVfolds
p6369
I6411
sVwrestling
p6370
I6413
sVprocession
p6371
I6414
sVfold
p6372
I4438
sVtraveling
p6373
I6416
sVreunion
p6374
I6417
sVmanipulating
p6375
I6418
sVfolk
p6376
I6419
sVcheckers
p6377
I6420
sVwaiting
p6378
I6421
sVattire
p6379
I6422
sVtoenails
p6380
I6423
sVkangaroo
p6381
I6424
sVpushing
p6382
I6425
sVfishermans
p6383
I6426
sVexplore
p6384
I6427
sVoars
p6385
I6428
sVsexy
p6386
I6430
sVcyclist
p6387
I6431
sVmetro
p6388
I6432
sVadjusts
p6389
I6433
sVshades
p6390
I6434
sVcalvin
p6391
I6435
sVleaving
p6392
I6436
sVsubmerged
p6393
I6437
sVshaded
p6394
I6438
sVpajama
p6395
I6439
sVshovel
p6396
I6440
sVapple
p6397
I6441
sVscales
p6398
I6442
sVrespirator
p6399
I4609
sVmotor
p6400
I6443
sVcheerleader
p6401
I4615
sVapply
p6402
I6445
sVuse
p6403
I2188
sVfrom
p6404
I4632
sVhippie
p6405
I4634
sVusa
p6406
I6449
sViced
p6407
I6450
sVrackets
p6408
I4644
sVfew
p6409
I6452
sVpossession
p6410
I928
sVporch
p6411
I6454
sVmusician
p6412
I6455
sVrabbit
p6413
I6456
sVbrochure
p6414
I6457
sVsculptor
p6415
I6458
sVwomen
p6416
I3816
sVbridesmaid
p6417
I6460
sVsaddle
p6418
I6716
sVstroke
p6419
I6462
sVlumber
p6420
I6463
sVperched
p6421
I6415
sVchin
p6422
I6464
sVperformed
p6423
I6465
sVpatrol
p6424
I4745
sVpatron
p6425
I4748
sVmowing
p6426
I6467
sVdripping
p6427
I4756
sVcarrot
p6428
I3712
sVsomething
p6429
I6468
sVtan
p6430
I6469
sVonions
p6431
I6470
sVunited
p6432
I4788
sVsit
p6433
I6472
sVbungee
p6434
I6473
sVsix
p6435
I6474
sVsidewalks
p6436
I6475
sVstruggles
p6437
I6476
sVcamels
p6438
I6721
sVinstead
p6439
I6478
sVtoddler
p6440
I6479
sVtypewriter
p6441
I6480
sVhurdles
p6442
I4826
sVattend
p6443
I6481
sVbarricades
p6444
I4842
sVwrist
p6445
I6483
sVethnic
p6446
I6484
sVdaycare
p6447
I4872
sVlight
p6448
I6486
sVstraps
p6449
I6487
sVimprovised
p6450
I4888
sVcrawling
p6451
I6489
sVnecklace
p6452
I6490
sVmartini
p6453
I6491
sVrusted
p6454
I6492
sVfarming
p6455
I6493
sVwhilst
p6456
I6496
sVlooks
p6457
I6497
sVbadges
p6458
I6498
sVhorizontally
p6459
I4926
sVgymnastic
p6460
I6725
sVships
p6461
I4957
sVturban
p6462
I31
sVredhead
p6463
I4975
sVcovered
p6464
I6503
sVholiday
p6465
I6504
sVcrowds
p6466
I6505
sVbelted
p6467
I4988
sVcrash
p6468
I6506
sVflour
p6469
I6507
sVmaterial
p6470
I4999
sVoranges
p6471
I6509
sVsnoopy
p6472
I6510
sVflea
p6473
I6511
sVarticles
p6474
I6512
sVeasel
p6475
I6513
sVdrummers
p6476
I6514
sVtram
p6477
I6515
sVtrimmed
p6478
I6516
sVweather
p6479
I6728
sVfiddle
p6480
I5043
sVtrap
p6481
I6518
sVblacktop
p6482
I6519
sVtray
p6483
I6520
sVrelated
p6484
I6522
sVour
p6485
I6523
sVsnorkeling
p6486
I6524
sVout
p6487
I6525
sVcocktail
p6488
I5626
sVparasailing
p6489
I6527
sVperforms
p6490
I6528
sVattentively
p6491
I5132
sVsculpting
p6492
I6530
sVpours
p6493
I6531
sVipod
p6494
I6532
sVyork
p6495
I6533
sVdumpster
p6496
I6534
sVrepairing
p6497
I6535
sVweaves
p6498
I6536
sVorganic
p6499
I6537
sVislamic
p6500
I6538
sVconversation
p6501
I6539
sVbirthday
p6502
I5630
sVmanicured
p6503
I6540
sVbiting
p6504
I6541
sVbouquet
p6505
I6542
sVbonnet
p6506
I6543
sVsmoothing
p6507
I6734
sVumbrellas
p6508
I6545
sVunknown
p6509
I6546
sVsnowcapped
p6510
I5278
sVpotty
p6511
I5284
sVagility
p6512
I6548
sVshell
p6513
I5311
sVshelf
p6514
I6550
sVshallow
p6515
I6551
sVdreadlocks
p6516
I6552
sVslides
p6517
I6553
sVreflecting
p6518
I6554
sVmules
p6519
I6555
sVjuly
p6520
I6556
sVpatients
p6521
I6557
sVsculpture
p6522
I6558
sVhairstyle
p6523
I6559
sVteenagers
p6524
I6560
sVfaux
p6525
I6561
sVlinked
p6526
I6562
sVcatholic
p6527
I6563
sVangle
p6528
I6564
sVbagel
p6529
I6565
sVwhich
p6530
I6566
sVdivers
p6531
I6567
sVvegetation
p6532
I6568
sVpretzels
p6533
I6569
sVcombat
p6534
I6570
sVknees
p6535
I1097
sVwho
p6536
I6571
sVcracking
p6537
I6572
sVwhy
p6538
I5496
sVstatute
p6539
I6574
sVrefreshing
p6540
I6575
sVlooked
p6541
I5522
sVhi
p6542
I6577
sVbalding
p6543
I6578
sVstove
p6544
I5554
sVseaweed
p6545
I6579
sVchicken
p6546
I4850
sVfilmed
p6547
I6580
sVmugs
p6548
I6581
sVclutching
p6549
I6582
sVmuch
p6550
I268
sVsurroundings
p6551
I6583
sVsunflowers
p6552
I6584
sVstudded
p6553
I5609
sVlocal
p6554
I5611
sVcube
p6555
I6586
sVwatching
p6556
I6587
sVones
p6557
I6588
sVcubs
p6558
I6589
sVbackdropped
p6559
I5641
sVbronco
p6560
I6591
sVhandgun
p6561
I5647
sVbelts
p6562
I6593
sVmarried
p6563
I6594
sVwaterfalls
p6564
I5672
sVdeli
p6565
I2810
sVroadwork
p6566
I6595
sVview
p6567
I6596
sVunison
p6568
I6597
sVavailable
p6569
I32
sVworkbench
p6570
I6599
sVviolet
p6571
I6600
sVcloser
p6572
I6601
sVcloses
p6573
I6602
sVbraid
p6574
I6603
sVpinata
p6575
I6604
sVclosed
p6576
I6605
sVfrustrated
p6577
I6606
sVbought
p6578
I5759
sVweighing
p6579
I6608
sVexam
p6580
I6609
sVopening
p6581
I6610
sVjoy
p6582
I6611
sVbeverages
p6583
I6612
sVhuts
p6584
I6613
sVcake
p6585
I6745
sVjob
p6586
I6615
sVjog
p6587
I6616
sVgoal
p6588
I6053
sVgrain
p6589
I6617
sVcanopy
p6590
I6618
sVsafely
p6591
I6619
sVgrounds
p6592
I6620
sVwall
p6593
I6622
sVwalk
p6594
I6623
sVtable
p6595
I6624
sVtrays
p6596
I6625
sVmotorbike
p6597
I6626
sVreindeer
p6598
I6628
sVoffers
p6599
I5649
sVbutchers
p6600
I6629
sVmike
p6601
I6630
sVverizon
p6602
I6631
sVpainted
p6603
I6632
sVpainter
p6604
I5974
sVabandoned
p6605
I6635
sVwill
p6606
I6636
sVhovering
p6607
I2601
sVwild
p6608
I6637
sVwile
p6609
I6638
sVlayer
p6610
I6639
sVlakeside
p6611
I6641
sVpews
p6612
I6039
sVbystanders
p6613
I6643
sVlonely
p6614
I5652
sVperhaps
p6615
I6644
sVvintage
p6616
I6645
sVheadlight
p6617
I1398
sVcross
p6618
I6646
sVmember
p6619
I6647
sVgets
p6620
I6648
sVtomatoes
p6621
I6649
sVhammering
p6622
I6650
sVcellphones
p6623
I6651
sVcoached
p6624
I6652
sVcoaches
p6625
I6653
sVstudent
p6626
I6654
sVpedal
p6627
I6655
sVwhale
p6628
I6656
sVcollar
p6629
I6135
sVwarming
p6630
I6658
sVingredients
p6631
I6659
sVbanging
p6632
I6660
sVfighting
p6633
I6661
sVspectator
p6634
I6662
sVenglish
p6635
I6168
sVbandanna
p6636
I6179
sVrocker
p6637
I6183
sVrocket
p6638
I6665
sVcamel
p6639
I6290
sVidentically
p6640
I2687
sVcakes
p6641
I5783
sVcries
p6642
I6668
sVfishing
p6643
I6669
sVhappiness
p6644
I6670
sVtoilets
p6645
I6671
sVrapid
p6646
I6672
sVconsole
p6647
I6673
sVbell
p6648
I6674
sVsky
p6649
I6675
sVdiscuss
p6650
I6676
sVbook
p6651
I6756
sVattractive
p6652
I6678
sVjars
p6653
I6679
sVski
p6654
I6680
sVidentical
p6655
I6681
sVprotesters
p6656
I6683
sVknow
p6657
I6684
sVfacial
p6658
I6685
sVraincoats
p6659
I4363
sVpress
p6660
I6687
sVname
p6661
I5658
sVpamphlet
p6662
I6688
sVmiami
p6663
I6689
sVloses
p6664
I6690
sVbecause
p6665
I6691
sVmattresses
p6666
I6692
sVscared
p6667
I6693
sVchurch
p6668
I6694
sVsearching
p6669
I6695
sVplatforms
p6670
I6696
sVtwirling
p6671
I6697
sVleaf
p6672
I6699
sVlead
p6673
I6700
sVlean
p6674
I6701
sVsandpit
p6675
I3823
sVdetergent
p6676
I6703
sVleap
p6677
I6704
sVcampfire
p6678
I6705
sVodeon
p6679
I6706
sVearrings
p6680
I6707
sVleader
p6681
I6708
sVripped
p6682
I6709
sVdangling
p6683
I6710
sVmitt
p6684
I6711
sVpasta
p6685
I6712
sVfluorescent
p6686
I6713
sVpaste
p6687
I6714
sVincline
p6688
I6459
sVgetting
p6689
I6461
sVcolumn
p6690
I6717
sVhaired
p6691
I5256
sVspilled
p6692
I6718
sVshipping
p6693
I6719
sVcarries
p6694
I6720
sVcarrier
p6695
I6477
sVsweat
p6696
I6722
sVowl
p6697
I6723
sVown
p6698
I6724
sVwilderness
p6699
I6500
sVtravelers
p6700
I6726
sVtailgate
p6701
I6727
sVpolishes
p6702
I6517
sVbrush
p6703
I6729
sVrowboat
p6704
I6730
sVvan
p6705
I6731
sVartifacts
p6706
I6732
sVspiral
p6707
I6733
sVcaptains
p6708
I3965
sVupwards
p6709
I6765
sVvat
p6710
I6736
sVbratwurst
p6711
I141
sVsqueeze
p6712
I6739
sVmade
p6713
I6741
sVprotesting
p6714
I6742
sVrecord
p6715
I6743
sVbelow
p6716
I6744
sVinfants
p6717
I6614
sVdemonstrate
p6718
I6746
sVbroadly
p6719
I5555
sVstirring
p6720
I6748
sVmaroon
p6721
I6633
sVboardwalk
p6722
I6749
sVtrotting
p6723
I6750
sVtrailing
p6724
I6751
sVincredible
p6725
I6752
sVguitarist
p6726
I6753
sVboot
p6727
I6754
sVcave
p6728
I2812
sVwaterskiing
p6729
I6755
sVother
p6730
I6677
sVboom
p6731
I6757
sVbranch
p6732
I6758
sVsloping
p6733
I6759
sValbum
p6734
I6760
sVjunk
p6735
I6761
sVkinds
p6736
I6762
sVmulch
p6737
I6763
sVpumps
p6738
I6764
sVcliff
p6739
I6735
sVdominoes
p6740
I6766
sVlaundromat
p6741
I6768
sVsash
p6742
I6769
s.